
sysroot/boot/adios.kernel:     file format elf32-i386


Disassembly of section .text:

00100000 <_start-0x155>:
  100000:	02 b0 ad 1b 03 00    	add    0x31bad(%eax),%dh
  100006:	00 00                	add    %al,(%eax)
  100008:	fb                   	sti
  100009:	4f                   	dec    %edi
  10000a:	52                   	push   %edx
  10000b:	e4 66                	in     $0x66,%al
  10000d:	90                   	nop
  10000e:	66 90                	xchg   %ax,%ax
  100010:	b8 14 10 10 00       	mov    $0x101014,%eax
  100015:	3d 14 10 10 00       	cmp    $0x101014,%eax
  10001a:	74 24                	je     100040 <FLAGS+0x10003d>
  10001c:	b8 00 00 00 00       	mov    $0x0,%eax
  100021:	85 c0                	test   %eax,%eax
  100023:	74 1b                	je     100040 <FLAGS+0x10003d>
  100025:	55                   	push   %ebp
  100026:	89 e5                	mov    %esp,%ebp
  100028:	83 ec 14             	sub    $0x14,%esp
  10002b:	68 14 10 10 00       	push   $0x101014
  100030:	ff d0                	call   *%eax
  100032:	83 c4 10             	add    $0x10,%esp
  100035:	c9                   	leave
  100036:	c3                   	ret
  100037:	8d b4 26 00 00 00 00 	lea    0x0(%esi,%eiz,1),%esi
  10003e:	66 90                	xchg   %ax,%ax
  100040:	c3                   	ret
  100041:	8d b4 26 00 00 00 00 	lea    0x0(%esi,%eiz,1),%esi
  100048:	8d b4 26 00 00 00 00 	lea    0x0(%esi,%eiz,1),%esi
  10004f:	90                   	nop
  100050:	b8 14 10 10 00       	mov    $0x101014,%eax
  100055:	2d 14 10 10 00       	sub    $0x101014,%eax
  10005a:	89 c2                	mov    %eax,%edx
  10005c:	c1 e8 1f             	shr    $0x1f,%eax
  10005f:	c1 fa 02             	sar    $0x2,%edx
  100062:	01 d0                	add    %edx,%eax
  100064:	d1 f8                	sar    %eax
  100066:	74 28                	je     100090 <FLAGS+0x10008d>
  100068:	ba 00 00 00 00       	mov    $0x0,%edx
  10006d:	85 d2                	test   %edx,%edx
  10006f:	74 1f                	je     100090 <FLAGS+0x10008d>
  100071:	55                   	push   %ebp
  100072:	89 e5                	mov    %esp,%ebp
  100074:	83 ec 10             	sub    $0x10,%esp
  100077:	50                   	push   %eax
  100078:	68 14 10 10 00       	push   $0x101014
  10007d:	ff d2                	call   *%edx
  10007f:	83 c4 10             	add    $0x10,%esp
  100082:	c9                   	leave
  100083:	c3                   	ret
  100084:	8d b4 26 00 00 00 00 	lea    0x0(%esi,%eiz,1),%esi
  10008b:	8d 74 26 00          	lea    0x0(%esi,%eiz,1),%esi
  10008f:	90                   	nop
  100090:	c3                   	ret
  100091:	8d b4 26 00 00 00 00 	lea    0x0(%esi,%eiz,1),%esi
  100098:	8d b4 26 00 00 00 00 	lea    0x0(%esi,%eiz,1),%esi
  10009f:	90                   	nop
  1000a0:	80 3d 00 20 10 00 00 	cmpb   $0x0,0x102000
  1000a7:	75 67                	jne    100110 <FLAGS+0x10010d>
  1000a9:	55                   	push   %ebp
  1000aa:	a1 04 20 10 00       	mov    0x102004,%eax
  1000af:	89 e5                	mov    %esp,%ebp
  1000b1:	56                   	push   %esi
  1000b2:	be 0c 10 10 00       	mov    $0x10100c,%esi
  1000b7:	53                   	push   %ebx
  1000b8:	bb 10 10 10 00       	mov    $0x101010,%ebx
  1000bd:	81 eb 0c 10 10 00    	sub    $0x10100c,%ebx
  1000c3:	c1 fb 02             	sar    $0x2,%ebx
  1000c6:	83 eb 01             	sub    $0x1,%ebx
  1000c9:	39 d8                	cmp    %ebx,%eax
  1000cb:	73 17                	jae    1000e4 <FLAGS+0x1000e1>
  1000cd:	8d 76 00             	lea    0x0(%esi),%esi
  1000d0:	83 c0 01             	add    $0x1,%eax
  1000d3:	a3 04 20 10 00       	mov    %eax,0x102004
  1000d8:	ff 14 86             	call   *(%esi,%eax,4)
  1000db:	a1 04 20 10 00       	mov    0x102004,%eax
  1000e0:	39 d8                	cmp    %ebx,%eax
  1000e2:	72 ec                	jb     1000d0 <FLAGS+0x1000cd>
  1000e4:	e8 27 ff ff ff       	call   100010 <FLAGS+0x10000d>
  1000e9:	b8 00 00 00 00       	mov    $0x0,%eax
  1000ee:	85 c0                	test   %eax,%eax
  1000f0:	74 10                	je     100102 <FLAGS+0x1000ff>
  1000f2:	83 ec 0c             	sub    $0xc,%esp
  1000f5:	68 fc 06 10 00       	push   $0x1006fc
  1000fa:	e8 01 ff ef ff       	call   0 <ALIGN-0x1>
  1000ff:	83 c4 10             	add    $0x10,%esp
  100102:	c6 05 00 20 10 00 01 	movb   $0x1,0x102000
  100109:	8d 65 f8             	lea    -0x8(%ebp),%esp
  10010c:	5b                   	pop    %ebx
  10010d:	5e                   	pop    %esi
  10010e:	5d                   	pop    %ebp
  10010f:	c3                   	ret
  100110:	c3                   	ret
  100111:	8d b4 26 00 00 00 00 	lea    0x0(%esi,%eiz,1),%esi
  100118:	8d b4 26 00 00 00 00 	lea    0x0(%esi,%eiz,1),%esi
  10011f:	90                   	nop
  100120:	b8 00 00 00 00       	mov    $0x0,%eax
  100125:	85 c0                	test   %eax,%eax
  100127:	74 27                	je     100150 <FLAGS+0x10014d>
  100129:	55                   	push   %ebp
  10012a:	89 e5                	mov    %esp,%ebp
  10012c:	83 ec 10             	sub    $0x10,%esp
  10012f:	68 08 20 10 00       	push   $0x102008
  100134:	68 fc 06 10 00       	push   $0x1006fc
  100139:	e8 c2 fe ef ff       	call   0 <ALIGN-0x1>
  10013e:	83 c4 10             	add    $0x10,%esp
  100141:	c9                   	leave
  100142:	e9 09 ff ff ff       	jmp    100050 <FLAGS+0x10004d>
  100147:	8d b4 26 00 00 00 00 	lea    0x0(%esi,%eiz,1),%esi
  10014e:	66 90                	xchg   %ax,%ax
  100150:	e9 fb fe ff ff       	jmp    100050 <FLAGS+0x10004d>

00100155 <_start>:
# The kernel entry point.
.section .text
.global _start
.type _start, @function
_start:
	movl $stack_top, %esp
  100155:	bc 20 60 10 00       	mov    $0x106020,%esp

	# Call the global constructors.
	call _init
  10015a:	e8 82 05 00 00       	call   1006e1 <_init>

	call kernel_main
  10015f:	e8 7c 02 00 00       	call   1003e0 <kernel_main>

	hlt
  100164:	f4                   	hlt
  100165:	66 90                	xchg   %ax,%ax
  100167:	66 90                	xchg   %ax,%ax
  100169:	66 90                	xchg   %ax,%ax
  10016b:	66 90                	xchg   %ax,%ax
  10016d:	66 90                	xchg   %ax,%ax
  10016f:	90                   	nop

00100170 <terminal_initialize>:
// Current pointer to the VGA buffer in memory
static uint16_t* terminal_buffer;

// Initialize the terminal
void terminal_initialize(void){
    terminal_row = 0;
  100170:	c7 05 2c 60 10 00 00 	movl   $0x0,0x10602c
  100177:	00 00 00 
    terminal_column = 0;
    // Terminal color is set to light green on black, can change this any time
    terminal_color = vga_entry_color(VGA_COLOR_LIGHT_GREEN, VGA_COLOR_BLACK);
    // Start pointing to the beginning of VGA memory
    terminal_buffer = VGA_MEMORY;
  10017a:	ba 40 81 0b 00       	mov    $0xb8140,%edx
    terminal_column = 0;
  10017f:	c7 05 28 60 10 00 00 	movl   $0x0,0x106028
  100186:	00 00 00 
    terminal_color = vga_entry_color(VGA_COLOR_LIGHT_GREEN, VGA_COLOR_BLACK);
  100189:	c6 05 24 60 10 00 0a 	movb   $0xa,0x106024
    terminal_buffer = VGA_MEMORY;
  100190:	c7 05 20 60 10 00 00 	movl   $0xb8000,0x106020
  100197:	80 0b 00 

    //Go over and set all the characters in the buffer to spaces
    for(size_t y = 0; y < VGA_HEIGHT; y++){
  10019a:	8d b6 00 00 00 00    	lea    0x0(%esi),%esi
        for(size_t x = 0; x < VGA_WIDTH; x++){
  1001a0:	8d 82 60 ff ff ff    	lea    -0xa0(%edx),%eax
  1001a6:	8d b4 26 00 00 00 00 	lea    0x0(%esi,%eiz,1),%esi
  1001ad:	8d 76 00             	lea    0x0(%esi),%esi
            const size_t index = y * VGA_HEIGHT + VGA_WIDTH + x;
            terminal_buffer[index] = vga_entry(' ', terminal_color);
  1001b0:	b9 20 0a 00 00       	mov    $0xa20,%ecx
        for(size_t x = 0; x < VGA_WIDTH; x++){
  1001b5:	83 c0 02             	add    $0x2,%eax
            terminal_buffer[index] = vga_entry(' ', terminal_color);
  1001b8:	66 89 48 fe          	mov    %cx,-0x2(%eax)
        for(size_t x = 0; x < VGA_WIDTH; x++){
  1001bc:	39 d0                	cmp    %edx,%eax
  1001be:	75 f0                	jne    1001b0 <terminal_initialize+0x40>
    for(size_t y = 0; y < VGA_HEIGHT; y++){
  1001c0:	8d 50 32             	lea    0x32(%eax),%edx
  1001c3:	3d f0 85 0b 00       	cmp    $0xb85f0,%eax
  1001c8:	75 d6                	jne    1001a0 <terminal_initialize+0x30>
        }
    }
}
  1001ca:	c3                   	ret
  1001cb:	8d 74 26 00          	lea    0x0(%esi,%eiz,1),%esi
  1001cf:	90                   	nop

001001d0 <terminal_setcolor>:

// Change the color of the terminal
void terminal_setcolor(enum vga_color foreground, enum vga_color background){
  1001d0:	55                   	push   %ebp
  1001d1:	89 e5                	mov    %esp,%ebp
	VGA_COLOR_LIGHT_BROWN = 14,
	VGA_COLOR_WHITE = 15,
};

static inline uint8_t vga_entry_color(enum vga_color foreground, enum vga_color background){
    return foreground | background << 4;
  1001d3:	0f b6 45 0c          	movzbl 0xc(%ebp),%eax
  1001d7:	c1 e0 04             	shl    $0x4,%eax
  1001da:	0a 45 08             	or     0x8(%ebp),%al
    terminal_color = vga_entry_color(foreground, background);
}
  1001dd:	5d                   	pop    %ebp
  1001de:	a2 24 60 10 00       	mov    %al,0x106024
  1001e3:	c3                   	ret
  1001e4:	8d b4 26 00 00 00 00 	lea    0x0(%esi,%eiz,1),%esi
  1001eb:	8d 74 26 00          	lea    0x0(%esi,%eiz,1),%esi
  1001ef:	90                   	nop

001001f0 <terminal_putentryat>:

// Put a character of color at (x,y) of the terminal buffer
void terminal_putentryat(unsigned char character, uint8_t character_color, size_t x, size_t y){
  1001f0:	55                   	push   %ebp
  1001f1:	89 e5                	mov    %esp,%ebp
    const size_t index = y * VGA_WIDTH + x;
    terminal_buffer[index] = vga_entry(character, character_color);
  1001f3:	0f b6 4d 0c          	movzbl 0xc(%ebp),%ecx
void terminal_putentryat(unsigned char character, uint8_t character_color, size_t x, size_t y){
  1001f7:	8b 45 14             	mov    0x14(%ebp),%eax
}

static inline uint16_t vga_entry(unsigned char character, uint8_t character_color){
    return (uint16_t) character | (uint16_t) character_color << 8;
  1001fa:	0f b6 55 08          	movzbl 0x8(%ebp),%edx
  1001fe:	c1 e1 08             	shl    $0x8,%ecx
    terminal_buffer[index] = vga_entry(character, character_color);
  100201:	8d 04 80             	lea    (%eax,%eax,4),%eax
  100204:	09 ca                	or     %ecx,%edx
  100206:	8b 0d 20 60 10 00    	mov    0x106020,%ecx
  10020c:	c1 e0 04             	shl    $0x4,%eax
  10020f:	03 45 10             	add    0x10(%ebp),%eax
  100212:	66 89 14 41          	mov    %dx,(%ecx,%eax,2)
}
  100216:	5d                   	pop    %ebp
  100217:	c3                   	ret
  100218:	8d b4 26 00 00 00 00 	lea    0x0(%esi,%eiz,1),%esi
  10021f:	90                   	nop

00100220 <terminal_scroll>:

// Scroll on the terminal
void terminal_scroll(int line){
  100220:	55                   	push   %ebp
  100221:	89 e5                	mov    %esp,%ebp
  100223:	8b 45 08             	mov    0x8(%ebp),%eax
    uint16_t * video_memory = VGA_MEMORY;

    // Move each row up by one line
    for(int y = line; y < VGA_HEIGHT - 1; y++){
  100226:	83 f8 17             	cmp    $0x17,%eax
  100229:	77 44                	ja     10026f <terminal_scroll+0x4f>
  10022b:	8d 4c 80 05          	lea    0x5(%eax,%eax,4),%ecx
  10022f:	c1 e1 05             	shl    $0x5,%ecx
  100232:	81 c1 a0 80 0b 00    	add    $0xb80a0,%ecx
  100238:	8d b4 26 00 00 00 00 	lea    0x0(%esi,%eiz,1),%esi
  10023f:	90                   	nop
        for(int x = 0; x < VGA_WIDTH; x++){
  100240:	8d 81 60 ff ff ff    	lea    -0xa0(%ecx),%eax
  100246:	8d b4 26 00 00 00 00 	lea    0x0(%esi,%eiz,1),%esi
  10024d:	8d 76 00             	lea    0x0(%esi),%esi
            video_memory[y * VGA_WIDTH + x] = video_memory[(y + 1) * VGA_WIDTH + x];
  100250:	0f b7 10             	movzwl (%eax),%edx
        for(int x = 0; x < VGA_WIDTH; x++){
  100253:	83 c0 02             	add    $0x2,%eax
            video_memory[y * VGA_WIDTH + x] = video_memory[(y + 1) * VGA_WIDTH + x];
  100256:	66 89 90 5e ff ff ff 	mov    %dx,-0xa2(%eax)
        for(int x = 0; x < VGA_WIDTH; x++){
  10025d:	39 c1                	cmp    %eax,%ecx
  10025f:	75 ef                	jne    100250 <terminal_scroll+0x30>
    for(int y = line; y < VGA_HEIGHT - 1; y++){
  100261:	81 c1 a0 00 00 00    	add    $0xa0,%ecx
  100267:	81 f9 40 90 0b 00    	cmp    $0xb9040,%ecx
  10026d:	75 d1                	jne    100240 <terminal_scroll+0x20>
        }
    }

    //We might want to delete the last line, but I'll leave it commented out for now
    //terminal_delete_last_line();
}
  10026f:	5d                   	pop    %ebp
  100270:	c3                   	ret
  100271:	8d b4 26 00 00 00 00 	lea    0x0(%esi,%eiz,1),%esi
  100278:	8d b4 26 00 00 00 00 	lea    0x0(%esi,%eiz,1),%esi
  10027f:	90                   	nop

00100280 <terminal_delete_last_line>:
void terminal_delete_last_line(){
    uint16_t * video_memory = VGA_MEMORY;

    // Clear the last line
    for(int x = 0; x < VGA_WIDTH; x++){
        video_memory[(VGA_HEIGHT - 1) * VGA_WIDTH + x] = vga_entry(' ', terminal_color);
  100280:	0f b6 15 24 60 10 00 	movzbl 0x106024,%edx
  100287:	b8 00 8f 0b 00       	mov    $0xb8f00,%eax
  10028c:	c1 e2 08             	shl    $0x8,%edx
  10028f:	83 ca 20             	or     $0x20,%edx
  100292:	8d b4 26 00 00 00 00 	lea    0x0(%esi,%eiz,1),%esi
  100299:	8d b4 26 00 00 00 00 	lea    0x0(%esi,%eiz,1),%esi
  1002a0:	66 89 10             	mov    %dx,(%eax)
    for(int x = 0; x < VGA_WIDTH; x++){
  1002a3:	83 c0 02             	add    $0x2,%eax
  1002a6:	3d a0 8f 0b 00       	cmp    $0xb8fa0,%eax
  1002ab:	75 f3                	jne    1002a0 <terminal_delete_last_line+0x20>
    }
}
  1002ad:	c3                   	ret
  1002ae:	66 90                	xchg   %ax,%ax

001002b0 <terminal_putchar>:

// Write a character to the terminal
void terminal_putchar(char c){
  1002b0:	55                   	push   %ebp
  1002b1:	89 e5                	mov    %esp,%ebp
  1002b3:	57                   	push   %edi
  1002b4:	56                   	push   %esi
  1002b5:	53                   	push   %ebx
  1002b6:	83 ec 0c             	sub    $0xc,%esp
    int line;
    unsigned char character = c;

    // Write the character at the current cursor
    terminal_putentryat(character, terminal_color, terminal_column, terminal_row);
  1002b9:	0f b6 15 24 60 10 00 	movzbl 0x106024,%edx
  1002c0:	8b 0d 2c 60 10 00    	mov    0x10602c,%ecx
  1002c6:	8b 35 28 60 10 00    	mov    0x106028,%esi
  1002cc:	8b 3d 20 60 10 00    	mov    0x106020,%edi
  1002d2:	89 d3                	mov    %edx,%ebx
    terminal_buffer[index] = vga_entry(character, character_color);
  1002d4:	8d 04 89             	lea    (%ecx,%ecx,4),%eax
  1002d7:	0f b6 55 08          	movzbl 0x8(%ebp),%edx
  1002db:	c1 e3 08             	shl    $0x8,%ebx
  1002de:	c1 e0 04             	shl    $0x4,%eax
  1002e1:	01 f0                	add    %esi,%eax
  1002e3:	09 da                	or     %ebx,%edx
  1002e5:	66 89 14 47          	mov    %dx,(%edi,%eax,2)

    // If we went over the width of the terminal, then go down a line
    if(++terminal_column == VGA_WIDTH){
  1002e9:	83 fe 4f             	cmp    $0x4f,%esi
  1002ec:	74 12                	je     100300 <terminal_putchar+0x50>
  1002ee:	8d 46 01             	lea    0x1(%esi),%eax
  1002f1:	a3 28 60 10 00       	mov    %eax,0x106028
            // Delete the last line of the terminal so we can write more stuff there
            terminal_delete_last_line();
            terminal_row = VGA_HEIGHT - 1;
        }
    }
}
  1002f6:	8d 65 f4             	lea    -0xc(%ebp),%esp
  1002f9:	5b                   	pop    %ebx
  1002fa:	5e                   	pop    %esi
  1002fb:	5f                   	pop    %edi
  1002fc:	5d                   	pop    %ebp
  1002fd:	c3                   	ret
  1002fe:	66 90                	xchg   %ax,%ax
        terminal_column = 0;
  100300:	c7 05 28 60 10 00 00 	movl   $0x0,0x106028
  100307:	00 00 00 
        if(++terminal_row == VGA_HEIGHT){
  10030a:	83 c1 01             	add    $0x1,%ecx
  10030d:	89 0d 2c 60 10 00    	mov    %ecx,0x10602c
  100313:	83 f9 19             	cmp    $0x19,%ecx
  100316:	75 de                	jne    1002f6 <terminal_putchar+0x46>
            for(line = 1; line < VGA_HEIGHT; line++){
  100318:	be 01 00 00 00       	mov    $0x1,%esi
  10031d:	8d 76 00             	lea    0x0(%esi),%esi
                terminal_scroll(line);
  100320:	83 ec 0c             	sub    $0xc,%esp
  100323:	56                   	push   %esi
            for(line = 1; line < VGA_HEIGHT; line++){
  100324:	83 c6 01             	add    $0x1,%esi
                terminal_scroll(line);
  100327:	e8 f4 fe ff ff       	call   100220 <terminal_scroll>
            for(line = 1; line < VGA_HEIGHT; line++){
  10032c:	83 c4 10             	add    $0x10,%esp
  10032f:	83 fe 19             	cmp    $0x19,%esi
  100332:	75 ec                	jne    100320 <terminal_putchar+0x70>
  100334:	89 da                	mov    %ebx,%edx
  100336:	b8 00 8f 0b 00       	mov    $0xb8f00,%eax
  10033b:	83 ca 20             	or     $0x20,%edx
  10033e:	66 90                	xchg   %ax,%ax
        video_memory[(VGA_HEIGHT - 1) * VGA_WIDTH + x] = vga_entry(' ', terminal_color);
  100340:	66 89 10             	mov    %dx,(%eax)
    for(int x = 0; x < VGA_WIDTH; x++){
  100343:	83 c0 02             	add    $0x2,%eax
  100346:	3d a0 8f 0b 00       	cmp    $0xb8fa0,%eax
  10034b:	75 f3                	jne    100340 <terminal_putchar+0x90>
            terminal_row = VGA_HEIGHT - 1;
  10034d:	c7 05 2c 60 10 00 18 	movl   $0x18,0x10602c
  100354:	00 00 00 
}
  100357:	8d 65 f4             	lea    -0xc(%ebp),%esp
  10035a:	5b                   	pop    %ebx
  10035b:	5e                   	pop    %esi
  10035c:	5f                   	pop    %edi
  10035d:	5d                   	pop    %ebp
  10035e:	c3                   	ret
  10035f:	90                   	nop

00100360 <terminal_write>:

// Use to write some data of size to the terminal in ASCII rep
void terminal_write(const char * data, size_t size){
  100360:	55                   	push   %ebp
  100361:	89 e5                	mov    %esp,%ebp
  100363:	56                   	push   %esi
  100364:	8b 75 0c             	mov    0xc(%ebp),%esi
  100367:	53                   	push   %ebx
    // Write some characters to the VGA buffer
    for(size_t i = 0; i < size; i++){
  100368:	85 f6                	test   %esi,%esi
  10036a:	74 2a                	je     100396 <terminal_write+0x36>
  10036c:	8b 5d 08             	mov    0x8(%ebp),%ebx
  10036f:	01 de                	add    %ebx,%esi
  100371:	8d b4 26 00 00 00 00 	lea    0x0(%esi,%eiz,1),%esi
  100378:	8d b4 26 00 00 00 00 	lea    0x0(%esi,%eiz,1),%esi
  10037f:	90                   	nop
        terminal_putchar(data[i]);
  100380:	0f be 03             	movsbl (%ebx),%eax
  100383:	83 ec 0c             	sub    $0xc,%esp
    for(size_t i = 0; i < size; i++){
  100386:	83 c3 01             	add    $0x1,%ebx
        terminal_putchar(data[i]);
  100389:	50                   	push   %eax
  10038a:	e8 21 ff ff ff       	call   1002b0 <terminal_putchar>
    for(size_t i = 0; i < size; i++){
  10038f:	83 c4 10             	add    $0x10,%esp
  100392:	39 f3                	cmp    %esi,%ebx
  100394:	75 ea                	jne    100380 <terminal_write+0x20>
    }
}
  100396:	8d 65 f8             	lea    -0x8(%ebp),%esp
  100399:	5b                   	pop    %ebx
  10039a:	5e                   	pop    %esi
  10039b:	5d                   	pop    %ebp
  10039c:	c3                   	ret
  10039d:	8d 76 00             	lea    0x0(%esi),%esi

001003a0 <terminal_writestring>:

// Use to write a string to the terminal
void terminal_writestring(const char * string){
  1003a0:	55                   	push   %ebp
  1003a1:	89 e5                	mov    %esp,%ebp
  1003a3:	56                   	push   %esi
  1003a4:	53                   	push   %ebx
  1003a5:	8b 5d 08             	mov    0x8(%ebp),%ebx
    terminal_write(string, strlen(string));
  1003a8:	83 ec 0c             	sub    $0xc,%esp
  1003ab:	53                   	push   %ebx
  1003ac:	e8 cf 02 00 00       	call   100680 <strlen>
    for(size_t i = 0; i < size; i++){
  1003b1:	83 c4 10             	add    $0x10,%esp
  1003b4:	85 c0                	test   %eax,%eax
  1003b6:	74 1e                	je     1003d6 <terminal_writestring+0x36>
  1003b8:	8d 34 03             	lea    (%ebx,%eax,1),%esi
  1003bb:	8d 74 26 00          	lea    0x0(%esi,%eiz,1),%esi
  1003bf:	90                   	nop
        terminal_putchar(data[i]);
  1003c0:	0f be 03             	movsbl (%ebx),%eax
  1003c3:	83 ec 0c             	sub    $0xc,%esp
    for(size_t i = 0; i < size; i++){
  1003c6:	83 c3 01             	add    $0x1,%ebx
        terminal_putchar(data[i]);
  1003c9:	50                   	push   %eax
  1003ca:	e8 e1 fe ff ff       	call   1002b0 <terminal_putchar>
    for(size_t i = 0; i < size; i++){
  1003cf:	83 c4 10             	add    $0x10,%esp
  1003d2:	39 f3                	cmp    %esi,%ebx
  1003d4:	75 ea                	jne    1003c0 <terminal_writestring+0x20>
  1003d6:	8d 65 f8             	lea    -0x8(%ebp),%esp
  1003d9:	5b                   	pop    %ebx
  1003da:	5e                   	pop    %esi
  1003db:	5d                   	pop    %ebp
  1003dc:	c3                   	ret
  1003dd:	66 90                	xchg   %ax,%ax
  1003df:	90                   	nop

001003e0 <kernel_main>:
#include <stdio.h>
#include "../include/kernel/tty.h"

void kernel_main(void){
  1003e0:	55                   	push   %ebp
  1003e1:	89 e5                	mov    %esp,%ebp
  1003e3:	83 ec 08             	sub    $0x8,%esp
    terminal_initialize();
  1003e6:	e8 85 fd ff ff       	call   100170 <terminal_initialize>
    printf("Welcome to the 64-bit adios kernel\n");
  1003eb:	83 ec 0c             	sub    $0xc,%esp
  1003ee:	68 00 07 10 00       	push   $0x100700
  1003f3:	e8 08 00 00 00       	call   100400 <printf>
  1003f8:	83 c4 10             	add    $0x10,%esp
  1003fb:	c9                   	leave
  1003fc:	c3                   	ret
  1003fd:	66 90                	xchg   %ax,%ax
  1003ff:	90                   	nop

00100400 <printf>:
		if (putchar(bytes[i]) == EOF)
			return false;
	return true;
}

int printf(const char* restrict format, ...) {
  100400:	55                   	push   %ebp
  100401:	89 e5                	mov    %esp,%ebp
  100403:	57                   	push   %edi
  100404:	56                   	push   %esi
	va_list parameters;
	va_start(parameters, format);
  100405:	8d 45 0c             	lea    0xc(%ebp),%eax
int printf(const char* restrict format, ...) {
  100408:	53                   	push   %ebx
  100409:	83 ec 2c             	sub    $0x2c,%esp
  10040c:	8b 5d 08             	mov    0x8(%ebp),%ebx
	va_start(parameters, format);
  10040f:	89 45 dc             	mov    %eax,-0x24(%ebp)

	int written = 0;
  100412:	c7 45 e4 00 00 00 00 	movl   $0x0,-0x1c(%ebp)

	while (*format != '\0') {
  100419:	0f b6 03             	movzbl (%ebx),%eax
  10041c:	84 c0                	test   %al,%al
  10041e:	0f 84 92 00 00 00    	je     1004b6 <printf+0xb6>
		size_t maxrem = INT_MAX - written;
  100424:	89 de                	mov    %ebx,%esi
  100426:	8d b4 26 00 00 00 00 	lea    0x0(%esi,%eiz,1),%esi
  10042d:	8d 76 00             	lea    0x0(%esi),%esi
  100430:	b9 ff ff ff 7f       	mov    $0x7fffffff,%ecx

		if (format[0] != '%' || format[1] == '%') {
  100435:	0f b6 5e 01          	movzbl 0x1(%esi),%ebx
		size_t maxrem = INT_MAX - written;
  100439:	2b 4d e4             	sub    -0x1c(%ebp),%ecx
		if (format[0] != '%' || format[1] == '%') {
  10043c:	3c 25                	cmp    $0x25,%al
  10043e:	0f 85 8f 00 00 00    	jne    1004d3 <printf+0xd3>
  100444:	80 fb 25             	cmp    $0x25,%bl
  100447:	0f 84 83 00 00 00    	je     1004d0 <printf+0xd0>
			continue;
		}

		const char* format_begun_at = format++;

		if (*format == 'c') {
  10044d:	80 fb 63             	cmp    $0x63,%bl
  100450:	0f 84 2a 01 00 00    	je     100580 <printf+0x180>
				return -1;
			}
			if (!print(&c, sizeof(c)))
				return -1;
			written++;
		} else if (*format == 's') {
  100456:	89 4d e0             	mov    %ecx,-0x20(%ebp)
  100459:	80 fb 73             	cmp    $0x73,%bl
  10045c:	0f 84 5e 01 00 00    	je     1005c0 <printf+0x1c0>
			if (!print(str, len))
				return -1;
			written += len;
		} else {
			format = format_begun_at;
			size_t len = strlen(format);
  100462:	83 ec 0c             	sub    $0xc,%esp
  100465:	56                   	push   %esi
  100466:	e8 15 02 00 00       	call   100680 <strlen>
			if (maxrem < len) {
  10046b:	8b 4d e0             	mov    -0x20(%ebp),%ecx
  10046e:	83 c4 10             	add    $0x10,%esp
			size_t len = strlen(format);
  100471:	89 c3                	mov    %eax,%ebx
			if (maxrem < len) {
  100473:	39 c1                	cmp    %eax,%ecx
  100475:	72 38                	jb     1004af <printf+0xaf>
	for (size_t i = 0; i < length; i++)
  100477:	85 c0                	test   %eax,%eax
  100479:	0f 84 f1 00 00 00    	je     100570 <printf+0x170>
  10047f:	89 f7                	mov    %esi,%edi
  100481:	8d 34 06             	lea    (%esi,%eax,1),%esi
  100484:	eb 15                	jmp    10049b <printf+0x9b>
  100486:	8d b4 26 00 00 00 00 	lea    0x0(%esi,%eiz,1),%esi
  10048d:	8d 76 00             	lea    0x0(%esi),%esi
  100490:	83 c7 01             	add    $0x1,%edi
  100493:	39 fe                	cmp    %edi,%esi
  100495:	0f 84 d5 00 00 00    	je     100570 <printf+0x170>
		if (putchar(bytes[i]) == EOF)
  10049b:	0f b6 07             	movzbl (%edi),%eax
  10049e:	83 ec 0c             	sub    $0xc,%esp
  1004a1:	50                   	push   %eax
  1004a2:	e8 b9 01 00 00       	call   100660 <putchar>
  1004a7:	83 c4 10             	add    $0x10,%esp
  1004aa:	83 f8 ff             	cmp    $0xffffffff,%eax
  1004ad:	75 e1                	jne    100490 <printf+0x90>
	int written = 0;
  1004af:	c7 45 e4 ff ff ff ff 	movl   $0xffffffff,-0x1c(%ebp)
		}
	}

	va_end(parameters);
	return written;
}
  1004b6:	8b 45 e4             	mov    -0x1c(%ebp),%eax
  1004b9:	8d 65 f4             	lea    -0xc(%ebp),%esp
  1004bc:	5b                   	pop    %ebx
  1004bd:	5e                   	pop    %esi
  1004be:	5f                   	pop    %edi
  1004bf:	5d                   	pop    %ebp
  1004c0:	c3                   	ret
  1004c1:	8d b4 26 00 00 00 00 	lea    0x0(%esi,%eiz,1),%esi
  1004c8:	8d b4 26 00 00 00 00 	lea    0x0(%esi,%eiz,1),%esi
  1004cf:	90                   	nop
				format++;
  1004d0:	83 c6 01             	add    $0x1,%esi
			while (format[amount] && format[amount] != '%')
  1004d3:	0f b6 46 01          	movzbl 0x1(%esi),%eax
  1004d7:	3c 25                	cmp    $0x25,%al
  1004d9:	0f 84 61 01 00 00    	je     100640 <printf+0x240>
  1004df:	84 c0                	test   %al,%al
  1004e1:	0f 84 59 01 00 00    	je     100640 <printf+0x240>
			size_t amount = 1;
  1004e7:	bf 01 00 00 00       	mov    $0x1,%edi
  1004ec:	8d 74 26 00          	lea    0x0(%esi,%eiz,1),%esi
				amount++;
  1004f0:	83 c7 01             	add    $0x1,%edi
			while (format[amount] && format[amount] != '%')
  1004f3:	0f b6 04 3e          	movzbl (%esi,%edi,1),%eax
  1004f7:	8d 14 3e             	lea    (%esi,%edi,1),%edx
  1004fa:	84 c0                	test   %al,%al
  1004fc:	74 04                	je     100502 <printf+0x102>
  1004fe:	3c 25                	cmp    $0x25,%al
  100500:	75 ee                	jne    1004f0 <printf+0xf0>
  100502:	89 55 e0             	mov    %edx,-0x20(%ebp)
			if (maxrem < amount) {
  100505:	39 f9                	cmp    %edi,%ecx
  100507:	72 a6                	jb     1004af <printf+0xaf>
	for (size_t i = 0; i < length; i++)
  100509:	85 ff                	test   %edi,%edi
  10050b:	0f 84 47 01 00 00    	je     100658 <printf+0x258>
  100511:	31 db                	xor    %ebx,%ebx
  100513:	eb 12                	jmp    100527 <printf+0x127>
  100515:	8d b4 26 00 00 00 00 	lea    0x0(%esi,%eiz,1),%esi
  10051c:	8d 74 26 00          	lea    0x0(%esi,%eiz,1),%esi
  100520:	83 c3 01             	add    $0x1,%ebx
  100523:	39 fb                	cmp    %edi,%ebx
  100525:	73 29                	jae    100550 <printf+0x150>
		if (putchar(bytes[i]) == EOF)
  100527:	0f b6 04 1e          	movzbl (%esi,%ebx,1),%eax
  10052b:	83 ec 0c             	sub    $0xc,%esp
  10052e:	50                   	push   %eax
  10052f:	e8 2c 01 00 00       	call   100660 <putchar>
  100534:	83 c4 10             	add    $0x10,%esp
  100537:	83 f8 ff             	cmp    $0xffffffff,%eax
  10053a:	75 e4                	jne    100520 <printf+0x120>
  10053c:	e9 6e ff ff ff       	jmp    1004af <printf+0xaf>
  100541:	8d b4 26 00 00 00 00 	lea    0x0(%esi,%eiz,1),%esi
  100548:	8d b4 26 00 00 00 00 	lea    0x0(%esi,%eiz,1),%esi
  10054f:	90                   	nop
	while (*format != '\0') {
  100550:	8b 75 e0             	mov    -0x20(%ebp),%esi
  100553:	0f b6 06             	movzbl (%esi),%eax
			written += amount;
  100556:	01 7d e4             	add    %edi,-0x1c(%ebp)
	while (*format != '\0') {
  100559:	84 c0                	test   %al,%al
  10055b:	0f 85 cf fe ff ff    	jne    100430 <printf+0x30>
}
  100561:	8b 45 e4             	mov    -0x1c(%ebp),%eax
  100564:	8d 65 f4             	lea    -0xc(%ebp),%esp
  100567:	5b                   	pop    %ebx
  100568:	5e                   	pop    %esi
  100569:	5f                   	pop    %edi
  10056a:	5d                   	pop    %ebp
  10056b:	c3                   	ret
  10056c:	8d 74 26 00          	lea    0x0(%esi,%eiz,1),%esi
			written += len;
  100570:	01 5d e4             	add    %ebx,-0x1c(%ebp)
	while (*format != '\0') {
  100573:	0f b6 06             	movzbl (%esi),%eax
  100576:	eb e1                	jmp    100559 <printf+0x159>
  100578:	8d b4 26 00 00 00 00 	lea    0x0(%esi,%eiz,1),%esi
  10057f:	90                   	nop
			char c = (char) va_arg(parameters, int /* char promotes to int */);
  100580:	8b 45 dc             	mov    -0x24(%ebp),%eax
			format++;
  100583:	8d 7e 02             	lea    0x2(%esi),%edi
			char c = (char) va_arg(parameters, int /* char promotes to int */);
  100586:	8d 58 04             	lea    0x4(%eax),%ebx
  100589:	8b 00                	mov    (%eax),%eax
			if (!maxrem) {
  10058b:	85 c9                	test   %ecx,%ecx
  10058d:	0f 84 1c ff ff ff    	je     1004af <printf+0xaf>
		if (putchar(bytes[i]) == EOF)
  100593:	83 ec 0c             	sub    $0xc,%esp
  100596:	0f b6 c0             	movzbl %al,%eax
  100599:	50                   	push   %eax
  10059a:	e8 c1 00 00 00       	call   100660 <putchar>
  10059f:	83 c4 10             	add    $0x10,%esp
  1005a2:	83 f8 ff             	cmp    $0xffffffff,%eax
  1005a5:	0f 84 04 ff ff ff    	je     1004af <printf+0xaf>
	while (*format != '\0') {
  1005ab:	0f b6 46 02          	movzbl 0x2(%esi),%eax
			written++;
  1005af:	83 45 e4 01          	addl   $0x1,-0x1c(%ebp)
			format++;
  1005b3:	89 fe                	mov    %edi,%esi
			char c = (char) va_arg(parameters, int /* char promotes to int */);
  1005b5:	89 5d dc             	mov    %ebx,-0x24(%ebp)
  1005b8:	eb 9f                	jmp    100559 <printf+0x159>
  1005ba:	8d b6 00 00 00 00    	lea    0x0(%esi),%esi
			format++;
  1005c0:	8d 46 02             	lea    0x2(%esi),%eax
			size_t len = strlen(str);
  1005c3:	83 ec 0c             	sub    $0xc,%esp
			format++;
  1005c6:	89 45 d8             	mov    %eax,-0x28(%ebp)
			const char* str = va_arg(parameters, const char*);
  1005c9:	8b 45 dc             	mov    -0x24(%ebp),%eax
  1005cc:	8b 18                	mov    (%eax),%ebx
  1005ce:	8d 50 04             	lea    0x4(%eax),%edx
  1005d1:	89 55 d4             	mov    %edx,-0x2c(%ebp)
			size_t len = strlen(str);
  1005d4:	53                   	push   %ebx
  1005d5:	e8 a6 00 00 00       	call   100680 <strlen>
			if (maxrem < len) {
  1005da:	8b 4d e0             	mov    -0x20(%ebp),%ecx
  1005dd:	83 c4 10             	add    $0x10,%esp
			size_t len = strlen(str);
  1005e0:	89 45 dc             	mov    %eax,-0x24(%ebp)
			if (maxrem < len) {
  1005e3:	39 c1                	cmp    %eax,%ecx
  1005e5:	0f 82 c4 fe ff ff    	jb     1004af <printf+0xaf>
	for (size_t i = 0; i < length; i++)
  1005eb:	85 c0                	test   %eax,%eax
  1005ed:	74 31                	je     100620 <printf+0x220>
  1005ef:	8d 3c 03             	lea    (%ebx,%eax,1),%edi
  1005f2:	eb 13                	jmp    100607 <printf+0x207>
  1005f4:	8d b4 26 00 00 00 00 	lea    0x0(%esi,%eiz,1),%esi
  1005fb:	8d 74 26 00          	lea    0x0(%esi,%eiz,1),%esi
  1005ff:	90                   	nop
  100600:	83 c3 01             	add    $0x1,%ebx
  100603:	39 df                	cmp    %ebx,%edi
  100605:	74 19                	je     100620 <printf+0x220>
		if (putchar(bytes[i]) == EOF)
  100607:	0f b6 03             	movzbl (%ebx),%eax
  10060a:	83 ec 0c             	sub    $0xc,%esp
  10060d:	50                   	push   %eax
  10060e:	e8 4d 00 00 00       	call   100660 <putchar>
  100613:	83 c4 10             	add    $0x10,%esp
  100616:	83 f8 ff             	cmp    $0xffffffff,%eax
  100619:	75 e5                	jne    100600 <printf+0x200>
  10061b:	e9 8f fe ff ff       	jmp    1004af <printf+0xaf>
			written += len;
  100620:	8b 55 dc             	mov    -0x24(%ebp),%edx
  100623:	01 55 e4             	add    %edx,-0x1c(%ebp)
			const char* str = va_arg(parameters, const char*);
  100626:	8b 55 d4             	mov    -0x2c(%ebp),%edx
	while (*format != '\0') {
  100629:	0f b6 46 02          	movzbl 0x2(%esi),%eax
			format++;
  10062d:	8b 75 d8             	mov    -0x28(%ebp),%esi
			const char* str = va_arg(parameters, const char*);
  100630:	89 55 dc             	mov    %edx,-0x24(%ebp)
  100633:	e9 21 ff ff ff       	jmp    100559 <printf+0x159>
  100638:	8d b4 26 00 00 00 00 	lea    0x0(%esi,%eiz,1),%esi
  10063f:	90                   	nop
			if (maxrem < amount) {
  100640:	85 c9                	test   %ecx,%ecx
  100642:	0f 84 67 fe ff ff    	je     1004af <printf+0xaf>
			while (format[amount] && format[amount] != '%')
  100648:	8d 46 01             	lea    0x1(%esi),%eax
			size_t amount = 1;
  10064b:	bf 01 00 00 00       	mov    $0x1,%edi
			while (format[amount] && format[amount] != '%')
  100650:	89 45 e0             	mov    %eax,-0x20(%ebp)
  100653:	e9 b9 fe ff ff       	jmp    100511 <printf+0x111>
	for (size_t i = 0; i < length; i++)
  100658:	8b 75 e0             	mov    -0x20(%ebp),%esi
  10065b:	e9 f6 fe ff ff       	jmp    100556 <printf+0x156>

00100660 <putchar>:

#if defined(__is_libk)
#include <kernel/tty.h>
#endif

int putchar(int ic) {
  100660:	55                   	push   %ebp
  100661:	89 e5                	mov    %esp,%ebp
  100663:	53                   	push   %ebx
#if defined(__is_libk)
	char c = (char) ic;
	terminal_write(&c, sizeof(c));
  100664:	8d 45 f7             	lea    -0x9(%ebp),%eax
int putchar(int ic) {
  100667:	83 ec 1c             	sub    $0x1c,%esp
  10066a:	8b 5d 08             	mov    0x8(%ebp),%ebx
	terminal_write(&c, sizeof(c));
  10066d:	6a 01                	push   $0x1
  10066f:	50                   	push   %eax
	char c = (char) ic;
  100670:	88 5d f7             	mov    %bl,-0x9(%ebp)
	terminal_write(&c, sizeof(c));
  100673:	e8 e8 fc ff ff       	call   100360 <terminal_write>
#else
	// TODO: Implement stdio and the write system call.
#endif
	return ic;
}
  100678:	89 d8                	mov    %ebx,%eax
  10067a:	8b 5d fc             	mov    -0x4(%ebp),%ebx
  10067d:	c9                   	leave
  10067e:	c3                   	ret
  10067f:	90                   	nop

00100680 <strlen>:
#include <string.h>

size_t strlen(const char* str) {
  100680:	55                   	push   %ebp
	size_t len = 0;
  100681:	31 c0                	xor    %eax,%eax
size_t strlen(const char* str) {
  100683:	89 e5                	mov    %esp,%ebp
  100685:	8b 55 08             	mov    0x8(%ebp),%edx
	while (str[len])
  100688:	80 3a 00             	cmpb   $0x0,(%edx)
  10068b:	74 0c                	je     100699 <strlen+0x19>
  10068d:	8d 76 00             	lea    0x0(%esi),%esi
		len++;
  100690:	83 c0 01             	add    $0x1,%eax
	while (str[len])
  100693:	80 3c 02 00          	cmpb   $0x0,(%edx,%eax,1)
  100697:	75 f7                	jne    100690 <strlen+0x10>
	return len;
}
  100699:	5d                   	pop    %ebp
  10069a:	c3                   	ret
  10069b:	66 90                	xchg   %ax,%ax
  10069d:	66 90                	xchg   %ax,%ax
  10069f:	90                   	nop
  1006a0:	a1 04 10 10 00       	mov    0x101004,%eax
  1006a5:	83 f8 ff             	cmp    $0xffffffff,%eax
  1006a8:	74 36                	je     1006e0 <strlen+0x60>
  1006aa:	55                   	push   %ebp
  1006ab:	89 e5                	mov    %esp,%ebp
  1006ad:	53                   	push   %ebx
  1006ae:	bb 04 10 10 00       	mov    $0x101004,%ebx
  1006b3:	83 ec 04             	sub    $0x4,%esp
  1006b6:	8d b4 26 00 00 00 00 	lea    0x0(%esi,%eiz,1),%esi
  1006bd:	8d 76 00             	lea    0x0(%esi),%esi
  1006c0:	ff d0                	call   *%eax
  1006c2:	8b 43 fc             	mov    -0x4(%ebx),%eax
  1006c5:	83 eb 04             	sub    $0x4,%ebx
  1006c8:	83 f8 ff             	cmp    $0xffffffff,%eax
  1006cb:	75 f3                	jne    1006c0 <strlen+0x40>
  1006cd:	8b 5d fc             	mov    -0x4(%ebp),%ebx
  1006d0:	c9                   	leave
  1006d1:	c3                   	ret
  1006d2:	8d b4 26 00 00 00 00 	lea    0x0(%esi,%eiz,1),%esi
  1006d9:	8d b4 26 00 00 00 00 	lea    0x0(%esi,%eiz,1),%esi
  1006e0:	c3                   	ret

Disassembly of section .init:

001006e1 <_init>:
.section .init
.global _init
.type _init, @function
_init:
	push %ebp
  1006e1:	55                   	push   %ebp
	movl %esp, %ebp
  1006e2:	89 e5                	mov    %esp,%ebp
  1006e4:	e8 37 fa ff ff       	call   100120 <FLAGS+0x10011d>
  1006e9:	e8 b2 ff ff ff       	call   1006a0 <strlen+0x20>
.section .init
	/* gcc will nicely put the contents of crtend.o's .init section here. */
	popl %ebp
  1006ee:	5d                   	pop    %ebp
	ret
  1006ef:	c3                   	ret

Disassembly of section .fini:

001006f0 <_fini>:

.section .fini
.global _fini
.type _fini, @function
_fini:
	push %ebp
  1006f0:	55                   	push   %ebp
	movl %esp, %ebp
  1006f1:	89 e5                	mov    %esp,%ebp
  1006f3:	e8 a8 f9 ff ff       	call   1000a0 <FLAGS+0x10009d>

.section .fini
	/* gcc will nicely put the contents of crtend.o's .fini section here. */
	popl %ebp
  1006f8:	5d                   	pop    %ebp
  1006f9:	c3                   	ret

Disassembly of section .eh_frame:

001006fc <.eh_frame>:
  1006fc:	00 00                	add    %al,(%eax)
	...

Disassembly of section .rodata.str1.4:

00100700 <.rodata.str1.4>:
  100700:	57                   	push   %edi
  100701:	65 6c                	gs insb (%dx),%es:(%edi)
  100703:	63 6f 6d             	arpl   %bp,0x6d(%edi)
  100706:	65 20 74 6f 20       	and    %dh,%gs:0x20(%edi,%ebp,2)
  10070b:	74 68                	je     100775 <_fini+0x85>
  10070d:	65 20 36             	and    %dh,%gs:(%esi)
  100710:	34 2d                	xor    $0x2d,%al
  100712:	62 69 74             	bound  %ebp,0x74(%ecx)
  100715:	20 61 64             	and    %ah,0x64(%ecx)
  100718:	69 6f 73 20 6b 65 72 	imul   $0x72656b20,0x73(%edi),%ebp
  10071f:	6e                   	outsb  %ds:(%esi),(%dx)
  100720:	65 6c                	gs insb (%dx),%es:(%edi)
  100722:	0a 00                	or     (%eax),%al

Disassembly of section .data:

00101000 <__dso_handle>:
  101000:	00 00                	add    %al,(%eax)
	...

Disassembly of section .ctors:

00101004 <.ctors>:
  101004:	ff                   	(bad)
  101005:	ff                   	(bad)
  101006:	ff                   	(bad)
  101007:	ff 00                	incl   (%eax)
  101009:	00 00                	add    %al,(%eax)
	...

Disassembly of section .dtors:

0010100c <__DTOR_END__-0x4>:
  10100c:	ff                   	(bad)
  10100d:	ff                   	(bad)
  10100e:	ff                   	(bad)
  10100f:	ff                 	incl   (%eax)

00101010 <__DTOR_END__>:
  101010:	00 00                	add    %al,(%eax)
	...

Disassembly of section .debug_line:

00000000 <.debug_line>:
   0:	54                   	push   %esp
   1:	00 00                	add    %al,(%eax)
   3:	00 05 00 04 00 2e    	add    %al,0x2e000400
   9:	00 00                	add    %al,(%eax)
   b:	00 01                	add    %al,(%ecx)
   d:	01 01                	add    %eax,(%ecx)
   f:	fb                   	sti
  10:	0e                   	push   %cs
  11:	0d 00 01 01 01       	or     $0x1010100,%eax
  16:	01 00                	add    %eax,(%eax)
  18:	00 00                	add    %al,(%eax)
  1a:	01 00                	add    %eax,(%eax)
  1c:	00 01                	add    %al,(%ecx)
  1e:	01 01                	add    %eax,(%ecx)
  20:	1f                   	pop    %ds
  21:	02 00                	add    (%eax),%al
  23:	00 00                	add    %al,(%eax)
  25:	00 2b                	add    %ch,(%ebx)
  27:	00 00                	add    %al,(%eax)
  29:	00 02                	add    %al,(%edx)
  2b:	01 1f                	add    %ebx,(%edi)
  2d:	02 0f                	add    (%edi),%cl
  2f:	02 35 00 00 00 01    	add    0x1000000,%dh
  35:	35 00 00 00 01       	xor    $0x1000000,%eax
  3a:	00 05 02 e1 06 10    	add    %al,0x1006e102
  40:	00 16                	add    %dl,(%esi)
  42:	21 02                	and    %eax,(%edx)
  44:	02 00                	add    (%eax),%al
  46:	01 01                	add    %eax,(%ecx)
  48:	00 05 02 f0 06 10    	add    %al,0x1006f002
  4e:	00 03                	add    %al,(%ebx)
  50:	0c 01                	or     $0x1,%al
  52:	21 02                	and    %eax,(%edx)
  54:	02 00                	add    (%eax),%al
  56:	01 01                	add    %eax,(%ecx)
  58:	48                   	dec    %eax
  59:	00 00                	add    %al,(%eax)
  5b:	00 05 00 04 00 2e    	add    %al,0x2e000400
  61:	00 00                	add    %al,(%eax)
  63:	00 01                	add    %al,(%ecx)
  65:	01 01                	add    %eax,(%ecx)
  67:	fb                   	sti
  68:	0e                   	push   %cs
  69:	0d 00 01 01 01       	or     $0x1010100,%eax
  6e:	01 00                	add    %eax,(%eax)
  70:	00 00                	add    %al,(%eax)
  72:	01 00                	add    %eax,(%eax)
  74:	00 01                	add    %al,(%ecx)
  76:	01 01                	add    %eax,(%ecx)
  78:	1f                   	pop    %ds
  79:	02 00                	add    (%eax),%al
  7b:	00 00                	add    %al,(%eax)
  7d:	00 2b                	add    %ch,(%ebx)
  7f:	00 00                	add    %al,(%eax)
  81:	00 02                	add    %al,(%edx)
  83:	01 1f                	add    %ebx,(%edi)
  85:	02 0f                	add    (%edi),%cl
  87:	02 3c 00             	add    (%eax,%eax,1),%bh
  8a:	00 00                	add    %al,(%eax)
  8c:	01 3c 00             	add    %edi,(%eax,%eax,1)
  8f:	00 00                	add    %al,(%eax)
  91:	01 00                	add    %eax,(%eax)
  93:	05 02 55 01 10       	add    $0x10015502,%eax
  98:	00 03                	add    %al,(%ebx)
  9a:	1a 01                	sbb    (%ecx),%al
  9c:	5b                   	pop    %ebx
  9d:	5a                   	pop    %edx
  9e:	5a                   	pop    %edx
  9f:	02 01                	add    (%ecx),%al
  a1:	00 01                	add    %al,(%ecx)
  a3:	01 41 03             	add    %eax,0x3(%ecx)
  a6:	00 00                	add    %al,(%eax)
  a8:	05 00 04 00 4a       	add    $0x4a000400,%eax
  ad:	00 00                	add    %al,(%eax)
  af:	00 01                	add    %al,(%ecx)
  b1:	01 01                	add    %eax,(%ecx)
  b3:	fb                   	sti
  b4:	0e                   	push   %cs
  b5:	0d 00 01 01 01       	or     $0x1010100,%eax
  ba:	01 00                	add    %eax,(%eax)
  bc:	00 00                	add    %al,(%eax)
  be:	01 00                	add    %eax,(%eax)
  c0:	00 01                	add    %al,(%ecx)
  c2:	01 01                	add    %eax,(%ecx)
  c4:	1f                   	pop    %ds
  c5:	04 00                	add    $0x0,%al
  c7:	00 00                	add    %al,(%eax)
  c9:	00 2b                	add    %ch,(%ebx)
  cb:	00 00                	add    %al,(%eax)
  cd:	00 53 00             	add    %dl,0x0(%ebx)
  d0:	00 00                	add    %al,(%eax)
  d2:	78 00                	js     d4 <FLAGS+0xd1>
  d4:	00 00                	add    %al,(%eax)
  d6:	02 01                	add    (%ecx),%al
  d8:	1f                   	pop    %ds
  d9:	02 0f                	add    (%edi),%cl
  db:	06                   	push   %es
  dc:	4d                   	dec    %ebp
  dd:	00 00                	add    %al,(%eax)
  df:	00 01                	add    %al,(%ecx)
  e1:	4d                   	dec    %ebp
  e2:	00 00                	add    %al,(%eax)
  e4:	00 01                	add    %al,(%ecx)
  e6:	b0 00                	mov    $0x0,%al
  e8:	00 00                	add    %al,(%eax)
  ea:	01 b6 00 00 00 02    	add    %esi,0x2000000(%esi)
  f0:	bf 00 00 00 02       	mov    $0x2000000,%edi
  f5:	cc                   	int3
  f6:	00 00                	add    %al,(%eax)
  f8:	00 03                	add    %al,(%ebx)
  fa:	05 1f 00 05 02       	add    $0x205001f,%eax
  ff:	70 01                	jo     102 <FLAGS+0xff>
 101:	10 00                	adc    %al,(%eax)
 103:	03 17                	add    (%edi),%edx
 105:	01 05 05 13 05 12    	add    %eax,0x12051305
 10b:	06                   	push   %es
 10c:	01 05 05 06 9f 05    	add    %eax,0x59f0605
 112:	15 06 16 54 05       	adc    $0x5541606,%eax
 117:	05 06 a0 05 14       	add    $0x1405a006,%eax
 11c:	06                   	push   %es
 11d:	01 05 05 06 76 05    	add    %eax,0x5760605
 123:	15 06 01 05 05       	adc    $0x5050106,%eax
 128:	06                   	push   %es
 129:	a1 05 09 01 05       	mov    0x5010905,%eax
 12e:	19 01                	sbb    %eax,(%ecx)
 130:	05 1d 67 05 0d       	add    $0xd05671d,%eax
 135:	00 02                	add    %al,(%edx)
 137:	04 03                	add    $0x3,%al
 139:	f3 00 02             	repz add %al,(%edx)
 13c:	04 03                	add    $0x3,%al
 13e:	13 05 24 00 02 04    	adc    0x4020024,%eax
 144:	03 06                	add    (%esi),%eax
 146:	01 05 1d 00 02 04    	add    %eax,0x402001d
 14c:	03 56 05             	add    0x5(%esi),%edx
 14f:	24 00                	and    $0x0,%al
 151:	02 04 03             	add    (%ebx,%eax,1),%al
 154:	3e 05 2b 00 02 04    	ds add $0x402002b,%eax
 15a:	03 06                	add    (%esi),%eax
 15c:	48                   	dec    %eax
 15d:	05 1d 00 02 04       	add    $0x402001d,%eax
 162:	03 01                	add    (%ecx),%eax
 164:	05 28 00 02 04       	add    $0x4020028,%eax
 169:	02 49 05             	add    0x5(%ecx),%cl
 16c:	19 00                	sbb    %eax,(%eax)
 16e:	02 04 02             	add    (%edx,%eax,1),%al
 171:	01 05 01 06 a4 05    	add    %eax,0x5a40601
 177:	4d                   	dec    %ebp
 178:	06                   	push   %es
 179:	69 05 05 13 05 4d 06 	imul   $0x2041106,0x4d051305,%eax
 180:	11 04 02 
 183:	05 17 06 03 6f       	add    $0x6f030617,%eax
 188:	3c 05                	cmp    $0x5,%al
 18a:	05 13 05 24 06       	add    $0x6240513,%eax
 18f:	01 05 17 74 04 01    	add    %eax,0x1047417
 195:	05 01 03 12 3c       	add    $0x3c120301,%eax
 19a:	04 02                	add    $0x2,%al
 19c:	05 17 03 6e 20       	add    $0x206e0317,%eax
 1a1:	04 01                	add    $0x1,%al
 1a3:	05 01 03 12 58       	add    $0x58120301,%eax
 1a8:	05 5f 06 cb 05       	add    $0x5cb065f,%eax
 1ad:	05 13 05 5f 06       	add    $0x65f0513,%eax
 1b2:	11 05 1e 3e 05 5f    	adc    %eax,0x5f053e1e
 1b8:	48                   	dec    %eax
 1b9:	05 05 06 3e 04       	add    $0x43e0605,%eax
 1be:	02 05 18 03 6c 01    	add    0x16c0318,%al
 1c4:	05 05 13 05 21       	add    $0x21051305,%eax
 1c9:	06                   	push   %es
 1ca:	01 05 3e 4a 04 01    	add    %eax,0x1044a3e
 1d0:	05 14 03 13 3c       	add    $0x3c130314,%eax
 1d5:	04 02                	add    $0x2,%al
 1d7:	05 21 03 6d 3c       	add    $0x3c6d0321,%eax
 1dc:	04 01                	add    $0x1,%al
 1de:	05 14 03 13 82       	add    $0x82130314,%eax
 1e3:	04 02                	add    $0x2,%al
 1e5:	05 21 03 6d 66       	add    $0x666d0321,%eax
 1ea:	04 01                	add    $0x1,%al
 1ec:	05 01 03 14 4a       	add    $0x4a140301,%eax
 1f1:	05 1f 06 a1 05       	add    $0x5a1061f,%eax
 1f6:	05 13 15 05 09       	add    $0x9051513,%eax
 1fb:	01 05 1f 06 0e 3c    	add    %eax,0x3c0e061f
 201:	05 19 06 40 05       	add    $0x5400619,%eax
 206:	1a 08                	sbb    (%eax),%cl
 208:	91                   	xchg   %eax,%ecx
 209:	05 0d 00 02 04       	add    $0x402000d,%eax
 20e:	03 f3                	add    %ebx,%esi
 210:	05 3b 00 02 04       	add    $0x402003b,%eax
 215:	03 06                	add    (%esi),%eax
 217:	01 05 1a 00 02 04    	add    %eax,0x402001a
 21d:	03 3b                	add    (%ebx),%edi
 21f:	05 2d 00 02 04       	add    $0x402002d,%eax
 224:	03 3d 05 28 00 02    	add    0x2002805,%edi
 22a:	04 03                	add    $0x3,%al
 22c:	06                   	push   %es
 22d:	73 05                	jae    234 <FLAGS+0x231>
 22f:	1a 00                	sbb    (%eax),%al
 231:	02 04 03             	add    (%ebx,%eax,1),%al
 234:	01 05 2c 00 02 04    	add    %eax,0x402002c
 23a:	02 49 05             	add    0x5(%ecx),%cl
 23d:	19 00                	sbb    %eax,(%eax)
 23f:	02 04 02             	add    (%edx,%eax,1),%al
 242:	01 05 01 06 de 05    	add    %eax,0x5de0601
 248:	21 06                	and    %eax,(%esi)
 24a:	08 14 05 05 13 15 05 	or     %dl,0x5151305(,%eax,1)
 251:	09 01                	or     %eax,(%ecx)
 253:	05 16 01 05 3a       	add    $0x3a050116,%eax
 258:	06                   	push   %es
 259:	13 04 02             	adc    (%edx,%eax,1),%eax
 25c:	05 21 03 56 74       	add    $0x74560321,%eax
 261:	05 3e 58 05 21       	add    $0x2105583e,%eax
 266:	3c 08                	cmp    $0x8,%al
 268:	12 04 01             	adc    (%ecx,%eax,1),%al
 26b:	05 09 00 02 04       	add    $0x4020009,%eax
 270:	03 06                	add    (%esi),%eax
 272:	03 2a                	add    (%edx),%ebp
 274:	01 04 02             	add    %eax,(%edx,%eax,1)
 277:	05 18 00 02 04       	add    $0x4020018,%eax
 27c:	03 03                	add    (%ebx),%eax
 27e:	55                   	push   %ebp
 27f:	01 05 05 00 02 04    	add    %eax,0x4020005
 285:	03 13                	add    (%ebx),%edx
 287:	00 02                	add    %al,(%edx)
 289:	04 03                	add    $0x3,%al
 28b:	06                   	push   %es
 28c:	01 04 01             	add    %eax,(%ecx,%eax,1)
 28f:	05 38 00 02 04       	add    $0x4020038,%eax
 294:	03 03                	add    (%ebx),%eax
 296:	2a 01                	sub    (%ecx),%al
 298:	05 24 00 02 04       	add    $0x4020024,%eax
 29d:	03 06                	add    (%esi),%eax
 29f:	3b 05 16 00 02 04    	cmp    0x4020016,%eax
 2a5:	03 01                	add    (%ecx),%eax
 2a7:	05 01 06 a1 05       	add    $0x5a10601,%eax
 2ac:	1e                   	push   %ds
 2ad:	06                   	push   %es
 2ae:	3f                   	aas
 2af:	05 05 13 13 05       	add    $0x5131305,%eax
 2b4:	1e                   	push   %ds
 2b5:	06                   	push   %es
 2b6:	10 05 05 06 41 05    	adc    %al,0x5410605
 2bc:	1e                   	push   %ds
 2bd:	06                   	push   %es
 2be:	0d 05 05 6b 05       	or     $0x56b0505,%eax
 2c3:	06                   	push   %es
 2c4:	06                   	push   %es
 2c5:	03 5d 08             	add    0x8(%ebp),%ebx
 2c8:	2e 05 05 13 13 04    	cs add $0x4131305,%eax
 2ce:	02 05 18 03 6c 01    	add    0x16c0318,%al
 2d4:	05 05 13 05 21       	add    $0x21051305,%eax
 2d9:	06                   	push   %es
 2da:	01 05 3e 66 04 01    	add    %eax,0x104663e
 2e0:	05 14 03 13 2e       	add    $0x2e130314,%eax
 2e5:	04 02                	add    $0x2,%al
 2e7:	05 21 03 6d 3c       	add    $0x3c6d0321,%eax
 2ec:	05 3e 4a 3c 04       	add    $0x43c4a3e,%eax
 2f1:	01 05 14 03 13 01    	add    %eax,0x1130314
 2f7:	04 02                	add    $0x2,%al
 2f9:	05 21 03 6d 58       	add    $0x586d0321,%eax
 2fe:	66 04 01             	data16 add $0x1,%al
 301:	05 05 06 03 37       	add    $0x37030605,%eax
 306:	01 05 07 06 01 05    	add    %eax,0x5010607
 30c:	01 03                	add    %eax,(%ebx)
 30e:	0c c8                	or     $0xc8,%al
 310:	05 09 06 03 75       	add    $0x75030609,%eax
 315:	9e                   	sahf
 316:	05 19 06 01 05       	add    $0x5010619,%eax
 31b:	09 06                	or     %eax,(%esi)
 31d:	a0 05 0c 06 01       	mov    0x1060c05,%al
 322:	05 0b 3c 05 16       	add    $0x16053c0b,%eax
 327:	ad                   	lods   %ds:(%esi),%eax
 328:	05 11 06 83 05       	add    $0x5830611,%eax
 32d:	32 06                	xor    (%esi),%al
 32f:	49                   	dec    %ecx
 330:	05 11 3d 05 32       	add    $0x32053d11,%eax
 335:	06                   	push   %es
 336:	57                   	push   %edi
 337:	05 20 01 04 02       	add    $0x2040120,%eax
 33c:	05 21 06 03 45       	add    $0x45030621,%eax
 341:	82 04 01 05          	addb   $0x5,(%ecx,%eax,1)
 345:	09 06                	or     %eax,(%esi)
 347:	03 2a                	add    (%edx),%ebp
 349:	ba 04 02 05 18       	mov    $0x18050204,%edx
 34e:	03 55 01             	add    0x1(%ebp),%edx
 351:	05 05 13 06 01       	add    $0x1061305,%eax
 356:	04 01                	add    $0x1,%al
 358:	05 38 03 2a 01       	add    $0x12a0338,%eax
 35d:	05 24 06 3b 05       	add    $0x53b0624,%eax
 362:	16                   	push   %ss
 363:	01 05 0d 03 17 9e    	add    %eax,0x9e17030d
 369:	05 1a 06 01 9e       	add    $0x9e01061a,%eax
 36e:	05 01 15 05 34       	add    $0x34051501,%eax
 373:	06                   	push   %es
 374:	93                   	xchg   %eax,%ebx
 375:	06                   	push   %es
 376:	01 05 05 06 3e 05    	add    %eax,0x53e0605
 37c:	09 01                	or     %eax,(%ecx)
 37e:	05 19 01 05 34       	add    $0x34050119,%eax
 383:	06                   	push   %es
 384:	10 05 19 5a 05 09    	adc    %al,0x9055a19
 38a:	00 02                	add    %al,(%edx)
 38c:	04 03                	add    $0x3,%al
 38e:	06                   	push   %es
 38f:	08 75 05             	or     %dh,0x5(%ebp)
 392:	19 00                	sbb    %eax,(%eax)
 394:	02 04 03             	add    (%ebx,%eax,1),%al
 397:	06                   	push   %es
 398:	65 05 09 00 02 04    	gs add $0x4020009,%eax
 39e:	03 3d 05 22 00 02    	add    0x2002205,%edi
 3a4:	04 03                	add    $0x3,%al
 3a6:	06                   	push   %es
 3a7:	65 05 19 00 02 04    	gs add $0x4020019,%eax
 3ad:	03 01                	add    (%ecx),%eax
 3af:	05 01 06 77 66       	add    $0x66770601,%eax
 3b4:	05 2f 06 4d 06       	add    $0x64d062f,%eax
 3b9:	01 05 05 06 3d 05    	add    %eax,0x53d0605
 3bf:	2f                   	das
 3c0:	06                   	push   %es
 3c1:	11 2e                	adc    %ebp,(%esi)
 3c3:	05 05 3d 05 06       	add    $0x6053d05,%eax
 3c8:	06                   	push   %es
 3c9:	03 77 90             	add    -0x70(%edi),%esi
 3cc:	05 19 14 05 09       	add    $0x9051419,%eax
 3d1:	e5 05                	in     $0x5,%eax
 3d3:	19 06                	sbb    %eax,(%esi)
 3d5:	65 05 09 3d 05 22    	gs add $0x22053d09,%eax
 3db:	06                   	push   %es
 3dc:	65 05 19 01 05 01    	gs add $0x1050119,%eax
 3e2:	06                   	push   %es
 3e3:	7c 02                	jl     3e7 <FLAGS+0x3e4>
 3e5:	07                   	pop    %es
 3e6:	00 01                	add    %al,(%ecx)
 3e8:	01 67 00             	add    %esp,0x0(%edi)
 3eb:	00 00                	add    %al,(%eax)
 3ed:	05 00 04 00 40       	add    $0x40000400,%eax
 3f2:	00 00                	add    %al,(%eax)
 3f4:	00 01                	add    %al,(%ecx)
 3f6:	01 01                	add    %eax,(%ecx)
 3f8:	fb                   	sti
 3f9:	0e                   	push   %cs
 3fa:	0d 00 01 01 01       	or     $0x1010100,%eax
 3ff:	01 00                	add    %eax,(%eax)
 401:	00 00                	add    %al,(%eax)
 403:	01 00                	add    %eax,(%eax)
 405:	00 01                	add    %al,(%ecx)
 407:	01 01                	add    %eax,(%ecx)
 409:	1f                   	pop    %ds
 40a:	04 00                	add    $0x0,%al
 40c:	00 00                	add    %al,(%eax)
 40e:	00 24 00             	add    %ah,(%eax,%eax,1)
 411:	00 00                	add    %al,(%eax)
 413:	78 00                	js     415 <FLAGS+0x412>
 415:	00 00                	add    %al,(%eax)
 417:	e5 00                	in     $0x0,%eax
 419:	00 00                	add    %al,(%eax)
 41b:	02 01                	add    (%ecx),%al
 41d:	1f                   	pop    %ds
 41e:	02 0f                	add    (%edi),%cl
 420:	04 dc                	add    $0xdc,%al
 422:	00 00                	add    %al,(%eax)
 424:	00 01                	add    %al,(%ecx)
 426:	dc 00                	faddl  (%eax)
 428:	00 00                	add    %al,(%eax)
 42a:	01 fe                	add    %edi,%esi
 42c:	00 00                	add    %al,(%eax)
 42e:	00 02                	add    %al,(%edx)
 430:	06                   	push   %es
 431:	01 00                	add    %eax,(%eax)
 433:	00 03                	add    %al,(%ebx)
 435:	05 17 00 05 02       	add    $0x2050017,%eax
 43a:	e0 03                	loopne 43f <FLAGS+0x43c>
 43c:	10 00                	adc    %al,(%eax)
 43e:	15 05 05 13 05       	adc    $0x5130505,%eax
 443:	17                   	pop    %ss
 444:	06                   	push   %es
 445:	11 05 05 67 06 59    	adc    %eax,0x59066705
 44b:	05 01 06 c9 02       	add    $0x2c90601,%eax
 450:	05 00 01 01 59       	add    $0x59010100,%eax
 455:	02 00                	add    (%eax),%al
 457:	00 05 00 04 00 4a    	add    %al,0x4a000400
 45d:	00 00                	add    %al,(%eax)
 45f:	00 01                	add    %al,(%ecx)
 461:	01 01                	add    %eax,(%ecx)
 463:	fb                   	sti
 464:	0e                   	push   %cs
 465:	0d 00 01 01 01       	or     $0x1010100,%eax
 46a:	01 00                	add    %eax,(%eax)
 46c:	00 00                	add    %al,(%eax)
 46e:	01 00                	add    %eax,(%eax)
 470:	00 01                	add    %al,(%ecx)
 472:	01 01                	add    %eax,(%ecx)
 474:	1f                   	pop    %ds
 475:	04 1b                	add    $0x1b,%al
 477:	01 00                	add    %eax,(%eax)
 479:	00 44 01 00          	add    %al,0x0(%ecx,%eax,1)
 47d:	00 53 00             	add    %dl,0x0(%ebx)
 480:	00 00                	add    %al,(%eax)
 482:	70 00                	jo     484 <FLAGS+0x481>
 484:	00 00                	add    %al,(%eax)
 486:	02 01                	add    (%ecx),%al
 488:	1f                   	pop    %ds
 489:	02 0f                	add    (%edi),%cl
 48b:	06                   	push   %es
 48c:	12 01                	adc    (%ecx),%al
 48e:	00 00                	add    %al,(%eax)
 490:	01 12                	add    %edx,(%edx)
 492:	01 00                	add    %eax,(%eax)
 494:	00 01                	add    %al,(%ecx)
 496:	4a                   	dec    %edx
 497:	01 00                	add    %eax,(%eax)
 499:	00 02                	add    %al,(%edx)
 49b:	b6 00                	mov    $0x0,%dh
 49d:	00 00                	add    %al,(%eax)
 49f:	02 fe                	add    %dh,%bh
 4a1:	00 00                	add    %al,(%eax)
 4a3:	00 03                	add    %al,(%ebx)
 4a5:	cc                   	int3
 4a6:	00 00                	add    %al,(%eax)
 4a8:	00 03                	add    %al,(%ebx)
 4aa:	05 2e 00 05 02       	add    $0x205002e,%eax
 4af:	00 04 10             	add    %al,(%eax,%edx,1)
 4b2:	00 03                	add    %al,(%ebx)
 4b4:	0e                   	push   %cs
 4b5:	01 06                	add    %eax,(%esi)
 4b7:	01 05 02 06 3d 13    	add    %eax,0x133d0602
 4bd:	05 2e 06 10 05       	add    $0x510062e,%eax
 4c2:	02 30                	add    (%eax),%dh
 4c4:	05 2e 3a 4a 05       	add    $0x54a3a2e,%eax
 4c9:	02 3e                	add    (%esi),%bh
 4cb:	06                   	push   %es
 4cc:	3e 14 05             	ds adc $0x5,%al
 4cf:	11 01                	adc    %eax,(%ecx)
 4d1:	05 06 06 10 05       	add    $0x5100606,%eax
 4d6:	09 76 05             	or     %esi,0x5(%esi)
 4d9:	11 3c 05 1b 83 05 03 	adc    %edi,0x305831b(,%eax,1)
 4e0:	06                   	push   %es
 4e1:	ba 05 1b 06 01       	mov    $0x1061b05,%edx
 4e6:	05 21 5a 05 1b       	add    $0x1b055a21,%eax
 4eb:	48                   	dec    %eax
 4ec:	05 03 06 3e 05       	add    $0x53e0603,%eax
 4f1:	06                   	push   %es
 4f2:	06                   	push   %es
 4f3:	01 05 18 00 02 04    	add    %eax,0x4020018
 4f9:	01 82 05 03 06 03    	add    %eax,0x3060305(%edx)
 4ff:	11 90 14 05 06 06    	adc    %edx,0x6060514(%eax)
 505:	01 05 0a 06 03 0a    	add    %eax,0xa03060a
 50b:	90                   	nop
 50c:	05 0d 06 3c 05       	add    $0x53c060d,%eax
 511:	04 06                	add    $0x6,%al
 513:	03 0c 90             	add    (%eax,%edx,4),%ecx
 516:	13 05 11 06 01 05    	adc    0x5010611,%eax
 51c:	07                   	pop    %es
 51d:	91                   	xchg   %eax,%ecx
 51e:	05 11 65 05 04       	add    $0x4056511,%eax
 523:	06                   	push   %es
 524:	2f                   	das
 525:	05 07 06 01 05       	add    $0x5010607,%eax
 52a:	17                   	pop    %ss
 52b:	06                   	push   %es
 52c:	03 46 4a             	add    0x4a(%esi),%eax
 52f:	05 22 08 82 05       	add    $0x5820822,%eax
 534:	17                   	pop    %ss
 535:	01 06                	add    %eax,(%esi)
 537:	3c 05                	cmp    $0x5,%al
 539:	03 06                	add    (%esi),%eax
 53b:	83 05 07 06 01 05 06 	addl   $0x6,0x5010607
 542:	ba 82 00 02 04       	mov    $0x4020082,%edx
 547:	01 03                	add    %eax,(%ebx)
 549:	09 01                	or     %eax,(%ecx)
 54b:	05 01 03 3d 74       	add    $0x743d0301,%eax
 550:	05 04 06 03 49       	add    $0x49030604,%eax
 555:	08 90 05 05 13 05    	or     %dl,0x5130505(%eax)
 55b:	0b 06                	or     (%esi),%eax
 55d:	01 05 04 06 3d 13    	add    %eax,0x133d0604
 563:	05 1a 01 05 11       	add    $0x1105011a,%eax
 568:	06                   	push   %es
 569:	01 05 1a 4a 05 0b    	add    %eax,0xb054a1a
 56f:	f1                   	int1
 570:	05 05 06 92 05       	add    $0x5920605,%eax
 575:	0b 06                	or     (%esi),%eax
 577:	01 05 1a 06 3b 05    	add    %eax,0x53b061a
 57d:	11 06                	adc    %eax,(%esi)
 57f:	01 05 1a 74 05 04    	add    %eax,0x405741a
 585:	06                   	push   %es
 586:	ae                   	scas   %es:(%edi),%al
 587:	05 07 06 01 05       	add    $0x5010607,%eax
 58c:	17                   	pop    %ss
 58d:	06                   	push   %es
 58e:	03 6b 4a             	add    0x4a(%ebx),%ebp
 591:	05 0e 06 82 05       	add    $0x582060e,%eax
 596:	22 06                	and    (%esi),%al
 598:	e4 05                	in     $0x5,%al
 59a:	17                   	pop    %ss
 59b:	3c 05                	cmp    $0x5,%al
 59d:	03 4b 05             	add    0x5(%ebx),%ecx
 5a0:	07                   	pop    %es
 5a1:	06                   	push   %es
 5a2:	01 05 06 c8 08 ac    	add    %eax,0xac08c806
 5a8:	05 09 03 0b 01       	add    $0x10b0309,%eax
 5ad:	05 04 06 03 0f       	add    $0xf030604,%eax
 5b2:	66 13 05 0c 06 01 05 	adc    0x501060c,%ax
 5b9:	04 06                	add    $0x6,%al
 5bb:	3d 06 01 05 11       	cmp    $0x11050106,%eax
 5c0:	06                   	push   %es
 5c1:	03 6f 01             	add    0x1(%edi),%ebp
 5c4:	05 01 06 03 3b       	add    $0x3b030601,%eax
 5c9:	82 82 2e 05 04 06 03 	addb   $0x3,0x604052e(%edx)
 5d0:	79 58                	jns    62a <FLAGS+0x627>
 5d2:	13 05 0c 06 11 3c    	adc    0x3c11060c,%eax
 5d8:	05 09 03 4c 01       	add    $0x14c0309,%eax
 5dd:	05 04 06 03 17       	add    $0x17030604,%eax
 5e2:	c8 05 14 06          	enter  $0x1405,$0x6
 5e6:	13 05 0a 3b 05 04    	adc    0x4053b0a,%eax
 5ec:	06                   	push   %es
 5ed:	3d 05 14 06 01       	cmp    $0x1061405,%eax
 5f2:	3c 05                	cmp    $0x5,%al
 5f4:	04 06                	add    $0x6,%al
 5f6:	2f                   	das
 5f7:	05 07 06 01 05       	add    $0x5010607,%eax
 5fc:	03 06                	add    (%esi),%eax
 5fe:	03 5c 82 05          	add    0x5(%edx,%eax,4),%ebx
 602:	07                   	pop    %es
 603:	06                   	push   %es
 604:	01 74 05 06          	add    %esi,0x6(%ebp,%eax,1)
 608:	58                   	pop    %eax
 609:	05 22 06 b9 05       	add    $0x5b90622,%eax
 60e:	17                   	pop    %ss
 60f:	01 06                	add    %eax,(%esi)
 611:	01 05 04 06 03 2b    	add    %eax,0x2b030604
 617:	01 06                	add    %eax,(%esi)
 619:	01 05 09 03 61 01    	add    %eax,0x1610309
 61f:	05 0b 03 1f 4a       	add    $0x4a1f030b,%eax
 624:	05 0a 03 78 4a       	add    $0x4a78030a,%eax
 629:	05 14 2f 3c 05       	add    $0x53c2f14,%eax
 62e:	04 06                	add    $0x6,%al
 630:	03 09                	add    (%ecx),%ecx
 632:	82 05 0a 06 01 05 11 	addb   $0x11,0x501060a
 639:	3e 05 0a 3a 05 04    	ds add $0x4053a0a,%eax
 63f:	06                   	push   %es
 640:	3d 05 10 06 01       	cmp    $0x1061005,%eax
 645:	3c 05                	cmp    $0x5,%al
 647:	04 06                	add    $0x6,%al
 649:	83 05 11 06 01 05 07 	addl   $0x7,0x5010611
 650:	67 05 11 65 05 04    	addr16 add $0x4056511,%eax
 656:	06                   	push   %es
 657:	3d 05 07 06 01       	cmp    $0x1060705,%eax
 65c:	05 17 06 03 50       	add    $0x50030617,%eax
 661:	82 05 22 08 4a 05 17 	addb   $0x17,0x54a0822
 668:	01 06                	add    %eax,(%esi)
 66a:	3c 05                	cmp    $0x5,%al
 66c:	03 06                	add    (%esi),%eax
 66e:	4b                   	dec    %ebx
 66f:	05 07 06 01 05       	add    $0x5010607,%eax
 674:	06                   	push   %es
 675:	ba c8 05 04 06       	mov    $0x60405c8,%edx
 67a:	03 35 01 05 0c 06    	add    0x60c0501,%esi
 680:	01 05 10 03 78 66    	add    %eax,0x66780310
 686:	05 09 03 5e 3c       	add    $0x3c5e0309,%eax
 68b:	05 0a 03 21 4a       	add    $0x4a21030a,%eax
 690:	05 10 3d 3c 05       	add    $0x53c3d10,%eax
 695:	04 06                	add    $0x6,%al
 697:	03 67 c8             	add    -0x38(%edi),%esp
 69a:	05 07 06 01 05       	add    $0x5010607,%eax
 69f:	11 80 05 0b 3b 05    	adc    %eax,0x53b0b05(%eax)
 6a5:	11 59 05             	adc    %ebx,0x5(%ecx)
 6a8:	17                   	pop    %ss
 6a9:	03 6d 82             	add    -0x7e(%ebp),%ebp
 6ac:	02 08                	add    (%eax),%cl
 6ae:	00 01                	add    %al,(%ecx)
 6b0:	01 74 00 00          	add    %esi,0x0(%eax,%eax,1)
 6b4:	00 05 00 04 00 40    	add    %al,0x40000400
 6ba:	00 00                	add    %al,(%eax)
 6bc:	00 01                	add    %al,(%ecx)
 6be:	01 01                	add    %eax,(%ecx)
 6c0:	fb                   	sti
 6c1:	0e                   	push   %cs
 6c2:	0d 00 01 01 01       	or     $0x1010100,%eax
 6c7:	01 00                	add    %eax,(%eax)
 6c9:	00 00                	add    %al,(%eax)
 6cb:	01 00                	add    %eax,(%eax)
 6cd:	00 01                	add    %al,(%ecx)
 6cf:	01 01                	add    %eax,(%ecx)
 6d1:	1f                   	pop    %ds
 6d2:	04 1b                	add    $0x1b,%al
 6d4:	01 00                	add    %eax,(%eax)
 6d6:	00 44 01 00          	add    %al,0x0(%ecx,%eax,1)
 6da:	00 53 00             	add    %dl,0x0(%ebx)
 6dd:	00 00                	add    %al,(%eax)
 6df:	63 01                	arpl   %ax,(%ecx)
 6e1:	00 00                	add    %al,(%eax)
 6e3:	02 01                	add    (%ecx),%al
 6e5:	1f                   	pop    %ds
 6e6:	02 0f                	add    (%edi),%cl
 6e8:	04 59                	add    $0x59,%al
 6ea:	01 00                	add    %eax,(%eax)
 6ec:	00 01                	add    %al,(%ecx)
 6ee:	59                   	pop    %ecx
 6ef:	01 00                	add    %eax,(%eax)
 6f1:	00 01                	add    %al,(%ecx)
 6f3:	b6 00                	mov    $0x0,%dh
 6f5:	00 00                	add    %al,(%eax)
 6f7:	02 06                	add    (%esi),%al
 6f9:	01 00                	add    %eax,(%eax)
 6fb:	00 03                	add    %al,(%ebx)
 6fd:	05 15 00 05 02       	add    $0x2050015,%eax
 702:	60                   	pusha
 703:	06                   	push   %es
 704:	10 00                	adc    %al,(%eax)
 706:	18 05 02 14 05 15    	sbb    %al,0x15051402
 70c:	06                   	push   %es
 70d:	10 05 02 4d 05 15    	adc    %al,0x15054d02
 713:	39 3c 05 02 3f 05 0b 	cmp    %edi,0xb053f02(,%eax,1)
 71a:	3b 05 02 06 3d 5c    	cmp    0x5c3d0602,%eax
 720:	05 01 06 13 02       	add    $0x2130601,%eax
 725:	07                   	pop    %es
 726:	00 01                	add    %al,(%ecx)
 728:	01 73 00             	add    %esi,0x0(%ebx)
 72b:	00 00                	add    %al,(%eax)
 72d:	05 00 04 00 37       	add    $0x37000400,%eax
 732:	00 00                	add    %al,(%eax)
 734:	00 01                	add    %al,(%ecx)
 736:	01 01                	add    %eax,(%ecx)
 738:	fb                   	sti
 739:	0e                   	push   %cs
 73a:	0d 00 01 01 01       	or     $0x1010100,%eax
 73f:	01 00                	add    %eax,(%eax)
 741:	00 00                	add    %al,(%eax)
 743:	01 00                	add    %eax,(%eax)
 745:	00 01                	add    %al,(%ecx)
 747:	01 01                	add    %eax,(%ecx)
 749:	1f                   	pop    %ds
 74a:	03 1b                	add    (%ebx),%ebx
 74c:	01 00                	add    %eax,(%eax)
 74e:	00 b2 01 00 00 53    	add    %dh,0x53000001(%edx)
 754:	00 00                	add    %al,(%eax)
 756:	00 02                	add    %al,(%edx)
 758:	01 1f                	add    %ebx,(%edi)
 75a:	02 0f                	add    (%edi),%cl
 75c:	03 a9 01 00 00 01    	add    0x1000001(%ecx),%ebp
 762:	a9 01 00 00 01       	test   $0x1000001,%eax
 767:	b6 00                	mov    $0x0,%dh
 769:	00 00                	add    %al,(%eax)
 76b:	02 05 20 00 05 02    	add    0x2050020,%al
 771:	80 06 10             	addb   $0x10,(%esi)
 774:	00 14 05 02 13 13 05 	add    %dl,0x5131302(,%eax,1)
 77b:	09 01                	or     %eax,(%ecx)
 77d:	05 20 06 10 05       	add    $0x5100620,%eax
 782:	09 21                	or     %esp,(%ecx)
 784:	05 20 2d 2e 05       	add    $0x52e2d20,%eax
 789:	09 3e                	or     %edi,(%esi)
 78b:	05 03 06 83 05       	add    $0x5830603,%eax
 790:	06                   	push   %es
 791:	06                   	push   %es
 792:	01 05 09 06 3b 05    	add    %eax,0x53b0609
 798:	01 06                	add    %eax,(%esi)
 79a:	69 02 02 00 01 01    	imul   $0x1010002,(%edx),%eax
 7a0:	52                   	push   %edx
 7a1:	00 00                	add    %al,(%eax)
 7a3:	00 05 00 04 00 2e    	add    %al,0x2e000400
 7a9:	00 00                	add    %al,(%eax)
 7ab:	00 01                	add    %al,(%ecx)
 7ad:	01 01                	add    %eax,(%ecx)
 7af:	fb                   	sti
 7b0:	0e                   	push   %cs
 7b1:	0d 00 01 01 01       	or     $0x1010100,%eax
 7b6:	01 00                	add    %eax,(%eax)
 7b8:	00 00                	add    %al,(%eax)
 7ba:	01 00                	add    %eax,(%eax)
 7bc:	00 01                	add    %al,(%ecx)
 7be:	01 01                	add    %eax,(%ecx)
 7c0:	1f                   	pop    %ds
 7c1:	02 00                	add    (%eax),%al
 7c3:	00 00                	add    %al,(%eax)
 7c5:	00 2b                	add    %ch,(%ebx)
 7c7:	00 00                	add    %al,(%eax)
 7c9:	00 02                	add    %al,(%edx)
 7cb:	01 1f                	add    %ebx,(%edi)
 7cd:	02 0f                	add    (%edi),%cl
 7cf:	02 b9 01 00 00 01    	add    0x1000001(%ecx),%bh
 7d5:	b9 01 00 00 01       	mov    $0x1000001,%ecx
 7da:	00 05 02 ee 06 10    	add    %al,0x1006ee02
 7e0:	00 14 21             	add    %dl,(%ecx,%eiz,1)
 7e3:	02 01                	add    (%ecx),%al
 7e5:	00 01                	add    %al,(%ecx)
 7e7:	01 00                	add    %eax,(%eax)
 7e9:	05 02 f8 06 10       	add    $0x1006f802,%eax
 7ee:	00 19                	add    %bl,(%ecx)
 7f0:	21 02                	and    %eax,(%edx)
 7f2:	01 00                	add    %eax,(%eax)
 7f4:	01 01                	add    %eax,(%ecx)

Disassembly of section .debug_line_str:

00000000 <.debug_line_str>:
   0:	2f                   	das
   1:	68 6f 6d 65 2f       	push   $0x2f656d6f
   6:	61                   	popa
   7:	64 69 74 68 79 61 2f 	imul   $0x6f442f61,%fs:0x79(%eax,%ebp,2),%esi
   e:	44 6f 
  10:	63 75 6d             	arpl   %si,0x6d(%ebp)
  13:	65 6e                	outsb  %gs:(%esi),(%dx)
  15:	74 73                	je     8a <FLAGS+0x87>
  17:	2f                   	das
  18:	41                   	inc    %ecx
  19:	64 69 4f 53 2f 41 64 	imul   $0x6964412f,%fs:0x53(%edi),%ecx
  20:	69 
  21:	4f                   	dec    %edi
  22:	53                   	push   %ebx
  23:	2f                   	das
  24:	6b 65 72 6e          	imul   $0x6e,0x72(%ebp),%esp
  28:	65 6c                	gs insb (%dx),%es:(%edi)
  2a:	00 61 72             	add    %ah,0x72(%ecx)
  2d:	63 68 2f             	arpl   %bp,0x2f(%eax)
  30:	69 33 38 36 00 63    	imul   $0x63003638,(%ebx),%esi
  36:	72 74                	jb     ac <FLAGS+0xa9>
  38:	69 2e 53 00 62 6f    	imul   $0x6f620053,(%esi),%ebp
  3e:	6f                   	outsl  %ds:(%esi),(%dx)
  3f:	74 2e                	je     6f <FLAGS+0x6c>
  41:	53                   	push   %ebx
  42:	00 61 72             	add    %ah,0x72(%ecx)
  45:	63 68 2f             	arpl   %bp,0x2f(%eax)
  48:	69 33 38 36 2f 74    	imul   $0x742f3638,(%ebx),%esi
  4e:	74 79                	je     c9 <FLAGS+0xc6>
  50:	2e 63 00             	arpl   %ax,%cs:(%eax)
  53:	2f                   	das
  54:	75 73                	jne    c9 <FLAGS+0xc6>
  56:	72 2f                	jb     87 <FLAGS+0x84>
  58:	6c                   	insb   (%dx),%es:(%edi)
  59:	69 62 2f 67 63 63 2f 	imul   $0x2f636367,0x2f(%edx),%esp
  60:	69 36 38 36 2d 65    	imul   $0x652d3638,(%esi),%esi
  66:	6c                   	insb   (%dx),%es:(%edi)
  67:	66 2f                	data16 das
  69:	31 31                	xor    %esi,(%ecx)
  6b:	2e 32 2e             	xor    %cs:(%esi),%ch
  6e:	30 2f                	xor    %ch,(%edi)
  70:	69 6e 63 6c 75 64 65 	imul   $0x6564756c,0x63(%esi),%ebp
  77:	00 2f                	add    %ch,(%edi)
  79:	68 6f 6d 65 2f       	push   $0x2f656d6f
  7e:	61                   	popa
  7f:	64 69 74 68 79 61 2f 	imul   $0x6f442f61,%fs:0x79(%eax,%ebp,2),%esi
  86:	44 6f 
  88:	63 75 6d             	arpl   %si,0x6d(%ebp)
  8b:	65 6e                	outsb  %gs:(%esi),(%dx)
  8d:	74 73                	je     102 <FLAGS+0xff>
  8f:	2f                   	das
  90:	41                   	inc    %ecx
  91:	64 69 4f 53 2f 41 64 	imul   $0x6964412f,%fs:0x53(%edi),%ecx
  98:	69 
  99:	4f                   	dec    %edi
  9a:	53                   	push   %ebx
  9b:	2f                   	das
  9c:	73 79                	jae    117 <FLAGS+0x114>
  9e:	73 72                	jae    112 <FLAGS+0x10f>
  a0:	6f                   	outsl  %ds:(%esi),(%dx)
  a1:	6f                   	outsl  %ds:(%esi),(%dx)
  a2:	74 2f                	je     d3 <FLAGS+0xd0>
  a4:	75 73                	jne    119 <FLAGS+0x116>
  a6:	72 2f                	jb     d7 <FLAGS+0xd4>
  a8:	69 6e 63 6c 75 64 65 	imul   $0x6564756c,0x63(%esi),%ebp
  af:	00 76 67             	add    %dh,0x67(%esi)
  b2:	61                   	popa
  b3:	2e 68 00 73 74 64    	cs push $0x64747300
  b9:	64 65 66 2e 68 00 73 	fs gs cs pushw $0x7300
  c0:	74 64                	je     126 <FLAGS+0x123>
  c2:	69 6e 74 2d 67 63 63 	imul   $0x6363672d,0x74(%esi),%ebp
  c9:	2e 68 00 73 74 72    	cs push $0x72747300
  cf:	69 6e 67 2e 68 00 6b 	imul   $0x6b00682e,0x67(%esi),%ebp
  d6:	65 72 6e             	gs jb  147 <FLAGS+0x144>
  d9:	65 6c                	gs insb (%dx),%es:(%edi)
  db:	2f                   	das
  dc:	6b 65 72 6e          	imul   $0x6e,0x72(%ebp),%esp
  e0:	65 6c                	gs insb (%dx),%es:(%edi)
  e2:	2e 63 00             	arpl   %ax,%cs:(%eax)
  e5:	6b 65 72 6e          	imul   $0x6e,0x72(%ebp),%esp
  e9:	65 6c                	gs insb (%dx),%es:(%edi)
  eb:	2f                   	das
  ec:	2e 2e 2f             	cs cs das
  ef:	69 6e 63 6c 75 64 65 	imul   $0x6564756c,0x63(%esi),%ebp
  f6:	2f                   	das
  f7:	6b 65 72 6e          	imul   $0x6e,0x72(%ebp),%esp
  fb:	65 6c                	gs insb (%dx),%es:(%edi)
  fd:	00 73 74             	add    %dh,0x74(%ebx)
 100:	64 69 6f 2e 68 00 74 	imul   $0x74740068,%fs:0x2e(%edi),%ebp
 107:	74 
 108:	79 2e                	jns    138 <FLAGS+0x135>
 10a:	68 00 73 74 64       	push   $0x64747300
 10f:	69 6f 2f 70 72 69 6e 	imul   $0x6e697270,0x2f(%edi),%ebp
 116:	74 66                	je     17e <FLAGS+0x17b>
 118:	2e 63 00             	arpl   %ax,%cs:(%eax)
 11b:	2f                   	das
 11c:	68 6f 6d 65 2f       	push   $0x2f656d6f
 121:	61                   	popa
 122:	64 69 74 68 79 61 2f 	imul   $0x6f442f61,%fs:0x79(%eax,%ebp,2),%esi
 129:	44 6f 
 12b:	63 75 6d             	arpl   %si,0x6d(%ebp)
 12e:	65 6e                	outsb  %gs:(%esi),(%dx)
 130:	74 73                	je     1a5 <FLAGS+0x1a2>
 132:	2f                   	das
 133:	41                   	inc    %ecx
 134:	64 69 4f 53 2f 41 64 	imul   $0x6964412f,%fs:0x53(%edi),%ecx
 13b:	69 
 13c:	4f                   	dec    %edi
 13d:	53                   	push   %ebx
 13e:	2f                   	das
 13f:	6c                   	insb   (%dx),%es:(%edi)
 140:	69 62 63 00 73 74 64 	imul   $0x64747300,0x63(%edx),%esp
 147:	69 6f 00 73 74 64 61 	imul   $0x61647473,0x0(%edi),%ebp
 14e:	72 67                	jb     1b7 <FLAGS+0x1b4>
 150:	2e 68 00 73 74 64    	cs push $0x64747300
 156:	69 6f 2f 70 75 74 63 	imul   $0x63747570,0x2f(%edi),%ebp
 15d:	68 61 72 2e 63       	push   $0x632e7261
 162:	00 2f                	add    %ch,(%edi)
 164:	68 6f 6d 65 2f       	push   $0x2f656d6f
 169:	61                   	popa
 16a:	64 69 74 68 79 61 2f 	imul   $0x6f442f61,%fs:0x79(%eax,%ebp,2),%esi
 171:	44 6f 
 173:	63 75 6d             	arpl   %si,0x6d(%ebp)
 176:	65 6e                	outsb  %gs:(%esi),(%dx)
 178:	74 73                	je     1ed <FLAGS+0x1ea>
 17a:	2f                   	das
 17b:	41                   	inc    %ecx
 17c:	64 69 4f 53 2f 41 64 	imul   $0x6964412f,%fs:0x53(%edi),%ecx
 183:	69 
 184:	4f                   	dec    %edi
 185:	53                   	push   %ebx
 186:	2f                   	das
 187:	73 79                	jae    202 <FLAGS+0x1ff>
 189:	73 72                	jae    1fd <FLAGS+0x1fa>
 18b:	6f                   	outsl  %ds:(%esi),(%dx)
 18c:	6f                   	outsl  %ds:(%esi),(%dx)
 18d:	74 2f                	je     1be <FLAGS+0x1bb>
 18f:	75 73                	jne    204 <FLAGS+0x201>
 191:	72 2f                	jb     1c2 <FLAGS+0x1bf>
 193:	69 6e 63 6c 75 64 65 	imul   $0x6564756c,0x63(%esi),%ebp
 19a:	2f                   	das
 19b:	6b 65 72 6e          	imul   $0x6e,0x72(%ebp),%esp
 19f:	65 6c                	gs insb (%dx),%es:(%edi)
 1a1:	00 73 74             	add    %dh,0x74(%ebx)
 1a4:	72 69                	jb     20f <FLAGS+0x20c>
 1a6:	6e                   	outsb  %ds:(%esi),(%dx)
 1a7:	67 2f                	addr16 das
 1a9:	73 74                	jae    21f <FLAGS+0x21c>
 1ab:	72 6c                	jb     219 <FLAGS+0x216>
 1ad:	65 6e                	outsb  %gs:(%esi),(%dx)
 1af:	2e 63 00             	arpl   %ax,%cs:(%eax)
 1b2:	73 74                	jae    228 <FLAGS+0x225>
 1b4:	72 69                	jb     21f <FLAGS+0x21c>
 1b6:	6e                   	outsb  %ds:(%esi),(%dx)
 1b7:	67 00 63 72          	add    %ah,0x72(%bp,%di)
 1bb:	74 6e                	je     22b <FLAGS+0x228>
 1bd:	2e 53                	cs push %ebx
	...

Disassembly of section .debug_info:

00000000 <.debug_info>:
   0:	1f                   	pop    %ds
   1:	00 00                	add    %al,(%eax)
   3:	00 05 00 01 04 00    	add    %al,0x40100
   9:	00 00                	add    %al,(%eax)
   b:	00 01                	add    %al,(%ecx)
   d:	00 00                	add    %al,(%eax)
   f:	00 00                	add    %al,(%eax)
  11:	0c 00                	or     $0x0,%al
  13:	00 00                	add    %al,(%eax)
  15:	00 00                	add    %al,(%eax)
  17:	00 00                	add    %al,(%eax)
  19:	11 00                	adc    %eax,(%eax)
  1b:	00 00                	add    %al,(%eax)
  1d:	3c 00                	cmp    $0x0,%al
  1f:	00 00                	add    %al,(%eax)
  21:	01 80 2d 00 00 00    	add    %eax,0x2d(%eax)
  27:	05 00 01 04 12       	add    $0x12040100,%eax
  2c:	00 00                	add    %al,(%eax)
  2e:	00 01                	add    %al,(%ecx)
  30:	58                   	pop    %eax
  31:	00 00                	add    %al,(%eax)
  33:	00 55 01             	add    %dl,0x1(%ebp)
  36:	10 00                	adc    %al,(%eax)
  38:	10 48 00             	adc    %cl,0x0(%eax)
  3b:	00 00                	add    %al,(%eax)
  3d:	11 00                	adc    %eax,(%eax)
  3f:	00 00                	add    %al,(%eax)
  41:	3c 00                	cmp    $0x0,%al
  43:	00 00                	add    %al,(%eax)
  45:	01 80 02 59 00 00    	add    %eax,0x5902(%eax)
  4b:	00 2f                	add    %ch,(%edi)
  4d:	55                   	push   %ebp
  4e:	01 10                	add    %edx,(%eax)
  50:	00 10                	add    %dl,(%eax)
  52:	03 00                	add    (%eax),%eax
  54:	96                   	xchg   %eax,%esi
  55:	06                   	push   %es
  56:	00 00                	add    %al,(%eax)
  58:	05 00 01 04 3a       	add    $0x3a040100,%eax
  5d:	00 00                	add    %al,(%eax)
  5f:	00 1f                	add    %bl,(%edi)
  61:	a1 00 00 00 1d       	mov    0x1d000000,%eax
  66:	43                   	inc    %ebx
  67:	00 00                	add    %al,(%eax)
  69:	00 00                	add    %al,(%eax)
  6b:	00 00                	add    %al,(%eax)
  6d:	00 70 01             	add    %dh,0x1(%eax)
  70:	10 00                	adc    %al,(%eax)
  72:	6d                   	insl   (%dx),%es:(%edi)
  73:	02 00                	add    (%eax),%al
  75:	00 a4 00 00 00 03 04 	add    %ah,0x4030000(%eax,%eax,1)
  7c:	05 c7 01 00 00       	add    $0x1c7,%eax
  81:	0f 9a 00             	setp   (%eax)
  84:	00 00                	add    %al,(%eax)
  86:	03 d1                	add    %ecx,%edx
  88:	17                   	pop    %ss
  89:	3e 00 00             	add    %al,%ds:(%eax)
  8c:	00 10                	add    %dl,(%eax)
  8e:	2d 00 00 00 03       	sub    $0x3000000,%eax
  93:	04 07                	add    $0x7,%al
  95:	43                   	inc    %ebx
  96:	02 00                	add    (%eax),%al
  98:	00 20                	add    %ah,(%eax)
  9a:	04 05                	add    $0x5,%al
  9c:	69 6e 74 00 03 08 05 	imul   $0x5080300,0x74(%esi),%ebp
  a3:	c2 01 00             	ret    $0x1
  a6:	00 03                	add    %al,(%ebx)
  a8:	0c 04                	or     $0x4,%al
  aa:	1a 02                	sbb    (%edx),%al
  ac:	00 00                	add    %al,(%eax)
  ae:	03 10                	add    (%eax),%edx
  b0:	04 49                	add    $0x49,%al
  b2:	03 00                	add    (%eax),%eax
  b4:	00 03                	add    %al,(%ebx)
  b6:	01 06                	add    %eax,(%esi)
  b8:	28 02                	sub    %al,(%edx)
  ba:	00 00                	add    %al,(%eax)
  bc:	03 02                	add    (%edx),%eax
  be:	05 90 00 00 00       	add    $0x90,%eax
  c3:	0f 79 01             	vmwrite (%ecx),%eax
  c6:	00 00                	add    %al,(%eax)
  c8:	04 2e                	add    $0x2e,%al
  ca:	18 7b 00             	sbb    %bh,0x0(%ebx)
  cd:	00 00                	add    %al,(%eax)
  cf:	03 01                	add    (%ecx),%eax
  d1:	08 26                	or     %ah,(%esi)
  d3:	02 00                	add    (%eax),%al
  d5:	00 0f                	add    %cl,(%edi)
  d7:	55                   	push   %ebp
  d8:	02 00                	add    (%eax),%al
  da:	00 04 31             	add    %al,(%ecx,%esi,1)
  dd:	19 8e 00 00 00 03    	sbb    %ecx,0x3000000(%esi)
  e3:	02 07                	add    (%edi),%al
  e5:	87 02                	xchg   %eax,(%edx)
  e7:	00 00                	add    %al,(%eax)
  e9:	03 08                	add    (%eax),%ecx
  eb:	07                   	pop    %es
  ec:	3e 02 00             	add    %ds:(%eax),%al
  ef:	00 03                	add    %al,(%ebx)
  f1:	04 07                	add    $0x7,%al
  f3:	48                   	dec    %eax
  f4:	02 00                	add    (%eax),%al
  f6:	00 21                	add    %ah,(%ecx)
  f8:	fe 02                	incb   (%edx)
  fa:	00 00                	add    %al,(%eax)
  fc:	07                   	pop    %es
  fd:	04 9c                	add    $0x9c,%al
  ff:	00 00                	add    %al,(%eax)
 101:	00 02                	add    %al,(%edx)
 103:	06                   	push   %es
 104:	06                   	push   %es
 105:	16                   	push   %ss
 106:	01 00                	add    %eax,(%eax)
 108:	00 01                	add    %al,(%ecx)
 10a:	91                   	xchg   %eax,%ecx
 10b:	03 00                	add    (%eax),%eax
 10d:	00 00                	add    %al,(%eax)
 10f:	01 2a                	add    %ebp,(%edx)
 111:	03 00                	add    (%eax),%eax
 113:	00 01                	add    %al,(%ecx)
 115:	01 d0                	add    %edx,%eax
 117:	01 00                	add    %eax,(%eax)
 119:	00 02                	add    %al,(%edx)
 11b:	01 b3 01 00 00 03    	add    %esi,0x3000001(%ebx)
 121:	01 b3 02 00 00 04    	add    %esi,0x4000002(%ebx)
 127:	01 53 03             	add    %edx,0x3(%ebx)
 12a:	00 00                	add    %al,(%eax)
 12c:	05 01 69 01 00       	add    $0x16901,%eax
 131:	00 06                	add    %al,(%esi)
 133:	01 a1 03 00 00 07    	add    %esp,0x7000003(%ecx)
 139:	01 81 01 00 00 08    	add    %eax,0x8000001(%ecx)
 13f:	01 5e 02             	add    %ebx,0x2(%esi)
 142:	00 00                	add    %al,(%eax)
 144:	09 01                	or     %eax,(%ecx)
 146:	43                   	inc    %ebx
 147:	01 00                	add    %eax,(%eax)
 149:	00 0a                	add    %cl,(%edx)
 14b:	01 60 00             	add    %esp,0x0(%eax)
 14e:	00 00                	add    %al,(%eax)
 150:	0b 01                	or     (%ecx),%eax
 152:	73 02                	jae    156 <FLAGS+0x153>
 154:	00 00                	add    %al,(%eax)
 156:	0c 01                	or     $0x1,%al
 158:	06                   	push   %es
 159:	01 00                	add    %eax,(%eax)
 15b:	00 0d 01 65 03 00    	add    %cl,0x36501
 161:	00 0e                	add    %cl,(%esi)
 163:	01 39                	add    %edi,(%ecx)
 165:	03 00                	add    (%eax),%eax
 167:	00 0f                	add    %cl,(%edi)
 169:	00 16                	add    %dl,(%esi)
 16b:	34 02                	xor    $0x2,%al
 16d:	00 00                	add    %al,(%eax)
 16f:	0a 39                	or     (%ecx),%bh
 171:	00 00                	add    %al,(%eax)
 173:	00 50 16             	add    %dl,0x16(%eax)
 176:	28 01                	sub    %al,(%ecx)
 178:	00 00                	add    %al,(%eax)
 17a:	0c 39                	or     $0x39,%al
 17c:	00 00                	add    %al,(%eax)
 17e:	00 19                	add    %bl,(%ecx)
 180:	17                   	pop    %ss
 181:	86 03                	xchg   %al,(%ebx)
 183:	00 00                	add    %al,(%eax)
 185:	0e                   	push   %cs
 186:	18 3c 01             	sbb    %bh,(%ecx,%eax,1)
 189:	00 00                	add    %al,(%eax)
 18b:	18 82 00 00 00 10    	sbb    %al,0x10000000(%edx)
 191:	37                   	aaa
 192:	01 00                	add    %eax,(%eax)
 194:	00 09                	add    %cl,(%ecx)
 196:	a1 02 00 00 11       	mov    0x11000002,%eax
 19b:	0f 2d 00             	cvtps2pi (%eax),%mm0
 19e:	00 00                	add    %al,(%eax)
 1a0:	05 03 2c 60 10       	add    $0x10602c03,%eax
 1a5:	00 09                	add    %cl,(%ecx)
 1a7:	59                   	pop    %ecx
 1a8:	01 00                	add    %eax,(%eax)
 1aa:	00 12                	add    %dl,(%edx)
 1ac:	0f 2d 00             	cvtps2pi (%eax),%mm0
 1af:	00 00                	add    %al,(%eax)
 1b1:	05 03 28 60 10       	add    $0x10602803,%eax
 1b6:	00 09                	add    %cl,(%ecx)
 1b8:	b6 03                	mov    $0x3,%dh
 1ba:	00 00                	add    %al,(%eax)
 1bc:	13 10                	adc    (%eax),%edx
 1be:	6f                   	outsl  %ds:(%esi),(%dx)
 1bf:	00 00                	add    %al,(%eax)
 1c1:	00 05 03 24 60 10    	add    %al,0x10602403
 1c7:	00 09                	add    %cl,(%ecx)
 1c9:	f0 01 00             	lock add %eax,(%eax)
 1cc:	00 15 12 37 01 00    	add    %dl,0x13712
 1d2:	00 05 03 20 60 10    	add    %al,0x10602003
 1d8:	00 22                	add    %ah,(%edx)
 1da:	9a 02 00 00 05 10 08 	lcall  $0x810,$0x5000002
 1e1:	2d 00 00 00 9b       	sub    $0x9b000000,%eax
 1e6:	01 00                	add    %eax,(%eax)
 1e8:	00 23                	add    %ah,(%ebx)
 1ea:	9b                   	fwait
 1eb:	01 00                	add    %eax,(%eax)
 1ed:	00 00                	add    %al,(%eax)
 1ef:	18 a7 01 00 00 03    	sbb    %ah,0x3000001(%edi)
 1f5:	01 06                	add    %eax,(%esi)
 1f7:	2f                   	das
 1f8:	02 00                	add    (%eax),%al
 1fa:	00 10                	add    %dl,(%eax)
 1fc:	a0 01 00 00 0a       	mov    0xa000001,%al
 201:	75 00                	jne    203 <FLAGS+0x200>
 203:	00 00                	add    %al,(%eax)
 205:	6c                   	insb   (%dx),%es:(%edi)
 206:	a0 03 10 00 3d       	mov    0x3d001003,%al
 20b:	00 00                	add    %al,(%eax)
 20d:	00 01                	add    %al,(%ecx)
 20f:	9c                   	pushf
 210:	2e 02 00             	add    %cs:(%eax),%al
 213:	00 0b                	add    %cl,(%ebx)
 215:	83 00 00             	addl   $0x0,(%eax)
 218:	00 6c 28 9b          	add    %ch,-0x65(%eax,%ebp,1)
 21c:	01 00                	add    %eax,(%eax)
 21e:	00 02                	add    %al,(%edx)
 220:	91                   	xchg   %eax,%ecx
 221:	00 19                	add    %bl,(%ecx)
 223:	2e 02 00             	add    %cs:(%eax),%al
 226:	00 b1 03 10 00 00    	add    %dh,0x1003(%ecx)
 22c:	b1 03                	mov    $0x3,%cl
 22e:	10 00                	adc    %al,(%eax)
 230:	25 00 00 00 6d       	and    $0x6d000000,%eax
 235:	24 02                	and    $0x2,%al
 237:	00 00                	add    %al,(%eax)
 239:	02 44 02 00          	add    0x0(%edx,%eax,1),%al
 23d:	00 0e                	add    %cl,(%esi)
 23f:	00 00                	add    %al,(%eax)
 241:	00 0c 00             	add    %cl,(%eax,%eax,1)
 244:	00 00                	add    %al,(%eax)
 246:	02 38                	add    (%eax),%bh
 248:	02 00                	add    (%eax),%al
 24a:	00 18                	add    %bl,(%eax)
 24c:	00 00                	add    %al,(%eax)
 24e:	00 16                	add    %dl,(%esi)
 250:	00 00                	add    %al,(%eax)
 252:	00 11                	add    %dl,(%ecx)
 254:	50                   	push   %eax
 255:	02 00                	add    (%eax),%al
 257:	00 b1 03 10 00 25    	add    %dh,0x25001003(%ecx)
 25d:	00 00                	add    %al,(%eax)
 25f:	00 05 51 02 00 00    	add    %al,0x251
 265:	27                   	daa
 266:	00 00                	add    %al,(%eax)
 268:	00 21                	add    %ah,(%ecx)
 26a:	00 00                	add    %al,(%eax)
 26c:	00 0c cf             	add    %cl,(%edi,%ecx,8)
 26f:	03 10                	add    (%eax),%edx
 271:	00 65 02             	add    %ah,0x2(%ebp)
 274:	00 00                	add    %al,(%eax)
 276:	00 00                	add    %al,(%eax)
 278:	0c b1                	or     $0xb1,%al
 27a:	03 10                	add    (%eax),%edx
 27c:	00 85 01 00 00 00    	add    %al,0x1(%ebp)
 282:	12 00                	adc    (%eax),%al
 284:	02 00                	add    (%eax),%al
 286:	00 64 65 02          	add    %ah,0x2(%ebp,%eiz,2)
 28a:	00 00                	add    %al,(%eax)
 28c:	04 ae                	add    $0xae,%al
 28e:	02 00                	add    (%eax),%al
 290:	00 01                	add    %al,(%ecx)
 292:	64 22 9b 01 00 00 04 	and    %fs:0x4000001(%ebx),%bl
 299:	e5 02                	in     $0x2,%eax
 29b:	00 00                	add    %al,(%eax)
 29d:	01 64 2f 2d          	add    %esp,0x2d(%edi,%ebp,1)
 2a1:	00 00                	add    %al,(%eax)
 2a3:	00 1a                	add    %bl,(%edx)
 2a5:	1b 69 00             	sbb    0x0(%ecx),%ebp
 2a8:	66 10 2d 00 00 00 0c 	data16 adc %ch,0xc000000
 2af:	8f 03                	pop    (%ebx)
 2b1:	10 00                	adc    %al,(%eax)
 2b3:	65 02 00             	add    %gs:(%eax),%al
 2b6:	00 00                	add    %al,(%eax)
 2b8:	00 12                	add    %dl,(%edx)
 2ba:	95                   	xchg   %eax,%ebp
 2bb:	01 00                	add    %eax,(%eax)
 2bd:	00 4d 8f             	add    %cl,-0x71(%ebp)
 2c0:	02 00                	add    (%eax),%al
 2c2:	00 13                	add    %dl,(%ebx)
 2c4:	63 00                	arpl   %ax,(%eax)
 2c6:	4d                   	dec    %ebp
 2c7:	1c a0                	sbb    $0xa0,%al
 2c9:	01 00                	add    %eax,(%eax)
 2cb:	00 07                	add    %al,(%edi)
 2cd:	e0 02                	loopne 2d1 <FLAGS+0x2ce>
 2cf:	00 00                	add    %al,(%eax)
 2d1:	4e                   	dec    %esi
 2d2:	09 45 00             	or     %eax,0x0(%ebp)
 2d5:	00 00                	add    %al,(%eax)
 2d7:	07                   	pop    %es
 2d8:	c1 02 00             	roll   $0x0,(%edx)
 2db:	00 4f 13             	add    %cl,0x13(%edi)
 2de:	7b 00                	jnp    2e0 <FLAGS+0x2dd>
 2e0:	00 00                	add    %al,(%eax)
 2e2:	00 24 cb             	add    %ah,(%ebx,%ecx,8)
 2e5:	02 00                	add    (%eax),%al
 2e7:	00 01                	add    %al,(%ecx)
 2e9:	43                   	inc    %ebx
 2ea:	06                   	push   %es
 2eb:	01 b3 02 00 00 07    	add    %esi,0x7000002(%ebx)
 2f1:	a6                   	cmpsb  %es:(%edi),%ds:(%esi)
 2f2:	01 00                	add    %eax,(%eax)
 2f4:	00 44 10 37          	add    %al,0x37(%eax,%edx,1)
 2f8:	01 00                	add    %eax,(%eax)
 2fa:	00 1a                	add    %bl,(%edx)
 2fc:	1b 78 00             	sbb    0x0(%eax),%edi
 2ff:	47                   	inc    %edi
 300:	0d 45 00 00 00       	or     $0x45,%eax
 305:	00 00                	add    %al,(%eax)
 307:	0a e0                	or     %al,%ah
 309:	01 00                	add    %eax,(%eax)
 30b:	00 35 20 02 10 00    	add    %dh,0x100220
 311:	51                   	push   %ecx
 312:	00 00                	add    %al,(%eax)
 314:	00 01                	add    %al,(%ecx)
 316:	9c                   	pushf
 317:	13 03                	adc    (%ebx),%eax
 319:	00 00                	add    %al,(%eax)
 31b:	0b e0                	or     %eax,%esp
 31d:	02 00                	add    (%eax),%al
 31f:	00 35 1a 45 00 00    	add    %dh,0x451a
 325:	00 02                	add    %al,(%edx)
 327:	91                   	xchg   %eax,%ecx
 328:	00 17                	add    %dl,(%edi)
 32a:	a6                   	cmpsb  %es:(%edi),%ds:(%esi)
 32b:	01 00                	add    %eax,(%eax)
 32d:	00 36                	add    %dh,(%esi)
 32f:	10 37                	adc    %dh,(%edi)
 331:	01 00                	add    %eax,(%eax)
 333:	00 1c 43             	add    %bl,(%ebx,%eax,2)
 336:	00 00                	add    %al,(%eax)
 338:	00 0d 79 00 39 0d    	add    %cl,0xd390079
 33e:	45                   	inc    %ebp
 33f:	00 00                	add    %al,(%eax)
 341:	00 4d 00             	add    %cl,0x0(%ebp)
 344:	00 00                	add    %al,(%eax)
 346:	4b                   	dec    %ebx
 347:	00 00                	add    %al,(%eax)
 349:	00 14 40             	add    %dl,(%eax,%eax,2)
 34c:	02 10                	add    (%eax),%dl
 34e:	00 21                	add    %ah,(%ecx)
 350:	00 00                	add    %al,(%eax)
 352:	00 0d 78 00 3a 11    	add    %cl,0x113a0078
 358:	45                   	inc    %ebp
 359:	00 00                	add    %al,(%eax)
 35b:	00 58 00             	add    %bl,0x0(%eax)
 35e:	00 00                	add    %al,(%eax)
 360:	56                   	push   %esi
 361:	00 00                	add    %al,(%eax)
 363:	00 00                	add    %al,(%eax)
 365:	00 00                	add    %al,(%eax)
 367:	12 f2                	adc    %dl,%dh
 369:	00 00                	add    %al,(%eax)
 36b:	00 2f                	add    %ch,(%edi)
 36d:	53                   	push   %ebx
 36e:	03 00                	add    (%eax),%eax
 370:	00 04 c1             	add    %al,(%ecx,%eax,8)
 373:	02 00                	add    (%eax),%al
 375:	00 01                	add    %al,(%ecx)
 377:	2f                   	das
 378:	28 7b 00             	sub    %bh,0x0(%ebx)
 37b:	00 00                	add    %al,(%eax)
 37d:	04 33                	add    $0x33,%al
 37f:	01 00                	add    %eax,(%eax)
 381:	00 01                	add    %al,(%ecx)
 383:	2f                   	das
 384:	3b 6f 00             	cmp    0x0(%edi),%ebp
 387:	00 00                	add    %al,(%eax)
 389:	13 78 00             	adc    0x0(%eax),%edi
 38c:	2f                   	das
 38d:	53                   	push   %ebx
 38e:	2d 00 00 00 13       	sub    $0x13000000,%eax
 393:	79 00                	jns    395 <FLAGS+0x392>
 395:	2f                   	das
 396:	5d                   	pop    %ebp
 397:	2d 00 00 00 07       	sub    $0x7000000,%eax
 39c:	8a 00                	mov    (%eax),%al
 39e:	00 00                	add    %al,(%eax)
 3a0:	30 12                	xor    %dl,(%edx)
 3a2:	39 00                	cmp    %eax,(%eax)
 3a4:	00 00                	add    %al,(%eax)
 3a6:	00 0a                	add    %cl,(%edx)
 3a8:	08 03                	or     %al,(%ebx)
 3aa:	00 00                	add    %al,(%eax)
 3ac:	2a d0                	sub    %al,%dl
 3ae:	01 10                	add    %edx,(%eax)
 3b0:	00 14 00             	add    %dl,(%eax,%eax,1)
 3b3:	00 00                	add    %al,(%eax)
 3b5:	01 9c af 03 00 00 0b 	add    %ebx,0xb000003(%edi,%ebp,4)
 3bc:	0f 02 00             	lar    (%eax),%eax
 3bf:	00 2a                	add    %ch,(%edx)
 3c1:	27                   	daa
 3c2:	a3 00 00 00 02       	mov    %eax,0x2000000
 3c7:	91                   	xchg   %eax,%ecx
 3c8:	00 0b                	add    %cl,(%ebx)
 3ca:	7b 03                	jnp    3cf <FLAGS+0x3cc>
 3cc:	00 00                	add    %al,(%eax)
 3ce:	2a 42 a3             	sub    -0x5d(%edx),%al
 3d1:	00 00                	add    %al,(%eax)
 3d3:	00 02                	add    %al,(%edx)
 3d5:	91                   	xchg   %eax,%ecx
 3d6:	04 08                	add    $0x8,%al
 3d8:	33 04 00             	xor    (%eax,%eax,1),%eax
 3db:	00 d3                	add    %dl,%bl
 3dd:	01 10                	add    %edx,(%eax)
 3df:	00 00                	add    %al,(%eax)
 3e1:	2c 00                	sub    $0x0,%al
 3e3:	00 00                	add    %al,(%eax)
 3e5:	2b 16                	sub    (%esi),%edx
 3e7:	02 4e 04             	add    0x4(%esi),%cl
 3ea:	00 00                	add    %al,(%eax)
 3ec:	63 00                	arpl   %ax,(%eax)
 3ee:	00 00                	add    %al,(%eax)
 3f0:	61                   	popa
 3f1:	00 00                	add    %al,(%eax)
 3f3:	00 02                	add    %al,(%edx)
 3f5:	42                   	inc    %edx
 3f6:	04 00                	add    $0x0,%al
 3f8:	00 6c 00 00          	add    %ch,0x0(%eax,%eax,1)
 3fc:	00 6a 00             	add    %ch,0x0(%edx)
 3ff:	00 00                	add    %al,(%eax)
 401:	00 00                	add    %al,(%eax)
 403:	0a ea                	or     %dl,%ch
 405:	02 00                	add    (%eax),%al
 407:	00 18                	add    %bl,(%eax)
 409:	70 01                	jo     40c <FLAGS+0x409>
 40b:	10 00                	adc    %al,(%eax)
 40d:	5b                   	pop    %ebx
 40e:	00 00                	add    %al,(%eax)
 410:	00 01                	add    %al,(%ecx)
 412:	9c                   	pushf
 413:	0b 04 00             	or     (%eax,%eax,1),%eax
 416:	00 14 9a             	add    %dl,(%edx,%ebx,4)
 419:	01 10                	add    %edx,(%eax)
 41b:	00 30                	add    %dh,(%eax)
 41d:	00 00                	add    %al,(%eax)
 41f:	00 0d 79 00 21 10    	add    %cl,0x10210079
 425:	2d 00 00 00 75       	sub    $0x75000000,%eax
 42a:	00 00                	add    %al,(%eax)
 42c:	00 73 00             	add    %dh,0x0(%ebx)
 42f:	00 00                	add    %al,(%eax)
 431:	14 a0                	adc    $0xa0,%al
 433:	01 10                	add    %edx,(%eax)
 435:	00 20                	add    %ah,(%eax)
 437:	00 00                	add    %al,(%eax)
 439:	00 0d 78 00 22 14    	add    %cl,0x14220078
 43f:	2d 00 00 00 7e       	sub    $0x7e000000,%eax
 444:	00 00                	add    %al,(%eax)
 446:	00 7c 00 00          	add    %bh,0x0(%eax,%eax,1)
 44a:	00 1c 25 00 00 00 07 	add    %bl,0x7000000(,%eiz,1)
 451:	8a 00                	mov    (%eax),%al
 453:	00 00                	add    %al,(%eax)
 455:	23 1a                	and    (%edx),%ebx
 457:	39 00                	cmp    %eax,(%eax)
 459:	00 00                	add    %al,(%eax)
 45b:	00 00                	add    %al,(%eax)
 45d:	00 00                	add    %al,(%eax)
 45f:	1d 1e 01 00 00       	sbb    $0x11e,%eax
 464:	1d 18 82 00 00       	sbb    $0x8218,%eax
 469:	00 33                	add    %dh,(%ebx)
 46b:	04 00                	add    $0x0,%al
 46d:	00 04 c1             	add    %al,(%ecx,%eax,8)
 470:	02 00                	add    (%eax),%al
 472:	00 02                	add    %al,(%edx)
 474:	1d 30 7b 00 00       	sbb    $0x7b30,%eax
 479:	00 04 33             	add    %al,(%ebx,%esi,1)
 47c:	01 00                	add    %eax,(%eax)
 47e:	00 02                	add    %al,(%edx)
 480:	1d 43 6f 00 00       	sbb    $0x6f43,%eax
 485:	00 00                	add    %al,(%eax)
 487:	1d 1a 03 00 00       	sbb    $0x31a,%eax
 48c:	19 17                	sbb    %edx,(%edi)
 48e:	6f                   	outsl  %ds:(%esi),(%dx)
 48f:	00 00                	add    %al,(%eax)
 491:	00 5b 04             	add    %bl,0x4(%ebx)
 494:	00 00                	add    %al,(%eax)
 496:	04 0f                	add    $0xf,%al
 498:	02 00                	add    (%eax),%al
 49a:	00 02                	add    %al,(%edx)
 49c:	19 36                	sbb    %esi,(%esi)
 49e:	a3 00 00 00 04       	mov    %eax,0x4000000
 4a3:	7b 03                	jnp    4a8 <FLAGS+0x4a5>
 4a5:	00 00                	add    %al,(%eax)
 4a7:	02 19                	add    (%ecx),%bl
 4a9:	51                   	push   %ecx
 4aa:	a3 00 00 00 00       	mov    %eax,0x0
 4af:	15 13 03 00 00       	adc    $0x313,%eax
 4b4:	f0 01 10             	lock add %edx,(%eax)
 4b7:	00 28                	add    %ch,(%eax)
 4b9:	00 00                	add    %al,(%eax)
 4bb:	00 01                	add    %al,(%ecx)
 4bd:	9c                   	pushf
 4be:	c7 04 00 00 06 1d 03 	movl   $0x31d0600,(%eax,%eax,1)
 4c5:	00 00                	add    %al,(%eax)
 4c7:	02 91 00 06 29 03    	add    0x3290600(%ecx),%dl
 4cd:	00 00                	add    %al,(%eax)
 4cf:	02 91 04 06 35 03    	add    0x3350604(%ecx),%dl
 4d5:	00 00                	add    %al,(%eax)
 4d7:	02 91 08 06 3e 03    	add    0x33e0608(%ecx),%dl
 4dd:	00 00                	add    %al,(%eax)
 4df:	02 91 0c 05 47 03    	add    0x347050c(%ecx),%dl
 4e5:	00 00                	add    %al,(%eax)
 4e7:	87 00                	xchg   %eax,(%eax)
 4e9:	00 00                	add    %al,(%eax)
 4eb:	85 00                	test   %eax,(%eax)
 4ed:	00 00                	add    %al,(%eax)
 4ef:	08 0b                	or     %cl,(%ebx)
 4f1:	04 00                	add    $0x0,%al
 4f3:	00 fa                	add    %bh,%dl
 4f5:	01 10                	add    %edx,(%eax)
 4f7:	00 01                	add    %al,(%ecx)
 4f9:	33 00                	xor    (%eax),%eax
 4fb:	00 00                	add    %al,(%eax)
 4fd:	31 1e                	xor    %ebx,(%esi)
 4ff:	02 26                	add    (%esi),%ah
 501:	04 00                	add    $0x0,%al
 503:	00 9b 00 00 00 99    	add    %bl,-0x67000000(%ebx)
 509:	00 00                	add    %al,(%eax)
 50b:	00 02                	add    %al,(%edx)
 50d:	1a 04 00             	sbb    (%eax,%eax,1),%al
 510:	00 a6 00 00 00 a4    	add    %ah,-0x5c000000(%esi)
 516:	00 00                	add    %al,(%eax)
 518:	00 00                	add    %al,(%eax)
 51a:	00 15 8f 02 00 00    	add    %dl,0x28f
 520:	80 02 10             	addb   $0x10,(%edx)
 523:	00 2e                	add    %ch,(%esi)
 525:	00 00                	add    %al,(%eax)
 527:	00 01                	add    %al,(%ecx)
 529:	9c                   	pushf
 52a:	2a 05 00 00 25 9c    	sub    0x9c250000,%al
 530:	02 00                	add    (%eax),%al
 532:	00 00                	add    %al,(%eax)
 534:	80 0b 00             	orb    $0x0,(%ebx)
 537:	11 a7 02 00 00 80    	adc    %esp,-0x7ffffffe(%edi)
 53d:	02 10                	add    (%eax),%dl
 53f:	00 2d 00 00 00 05    	add    %ch,0x5000000
 545:	a8 02                	test   $0x2,%al
 547:	00 00                	add    %al,(%eax)
 549:	b1 00                	mov    $0x0,%cl
 54b:	00 00                	add    %al,(%eax)
 54d:	af                   	scas   %es:(%edi),%eax
 54e:	00 00                	add    %al,(%eax)
 550:	00 08                	add    %cl,(%eax)
 552:	0b 04 00             	or     (%eax,%eax,1),%eax
 555:	00 a0 02 10 00 02    	add    %ah,0x2001002(%eax)
 55b:	4e                   	dec    %esi
 55c:	00 00                	add    %al,(%eax)
 55e:	00 48 3a             	add    %cl,0x3a(%eax)
 561:	02 26                	add    (%esi),%ah
 563:	04 00                	add    $0x0,%al
 565:	00 bc 00 00 00 ba 00 	add    %bh,0xba0000(%eax,%eax,1)
 56c:	00 00                	add    %al,(%eax)
 56e:	02 1a                	add    (%edx),%bl
 570:	04 00                	add    $0x0,%al
 572:	00 ca                	add    %cl,%dl
 574:	00 00                	add    %al,(%eax)
 576:	00 c8                	add    %cl,%al
 578:	00 00                	add    %al,(%eax)
 57a:	00 00                	add    %al,(%eax)
 57c:	00 00                	add    %al,(%eax)
 57e:	15 65 02 00 00       	adc    $0x265,%eax
 583:	b0 02                	mov    $0x2,%al
 585:	10 00                	adc    %al,(%eax)
 587:	af                   	scas   %es:(%edi),%eax
 588:	00 00                	add    %al,(%eax)
 58a:	00 01                	add    %al,(%ecx)
 58c:	9c                   	pushf
 58d:	5d                   	pop    %ebp
 58e:	06                   	push   %es
 58f:	00 00                	add    %al,(%eax)
 591:	06                   	push   %es
 592:	6f                   	outsl  %ds:(%esi),(%dx)
 593:	02 00                	add    (%eax),%al
 595:	00 02                	add    %al,(%edx)
 597:	91                   	xchg   %eax,%ecx
 598:	00 0e                	add    %cl,(%esi)
 59a:	78 02                	js     59e <FLAGS+0x59b>
 59c:	00 00                	add    %al,(%eax)
 59e:	05 83 02 00 00       	add    $0x283,%eax
 5a3:	d6                   	(bad)
 5a4:	00 00                	add    %al,(%eax)
 5a6:	00 d4                	add    %dl,%ah
 5a8:	00 00                	add    %al,(%eax)
 5aa:	00 19                	add    %bl,(%ecx)
 5ac:	13 03                	adc    (%ebx),%eax
 5ae:	00 00                	add    %al,(%eax)
 5b0:	cc                   	int3
 5b1:	02 10                	add    (%eax),%dl
 5b3:	00 00                	add    %al,(%eax)
 5b5:	cc                   	int3
 5b6:	02 10                	add    (%eax),%dl
 5b8:	00 1d 00 00 00 52    	add    %bl,0x52000000
 5be:	db 05 00 00 02 3e    	fildl  0x3e020000
 5c4:	03 00                	add    (%eax),%eax
 5c6:	00 e1                	add    %ah,%cl
 5c8:	00 00                	add    %al,(%eax)
 5ca:	00 df                	add    %bl,%bh
 5cc:	00 00                	add    %al,(%eax)
 5ce:	00 02                	add    %al,(%edx)
 5d0:	35 03 00 00 eb       	xor    $0xeb000003,%eax
 5d5:	00 00                	add    %al,(%eax)
 5d7:	00 e9                	add    %ch,%cl
 5d9:	00 00                	add    %al,(%eax)
 5db:	00 02                	add    %al,(%edx)
 5dd:	29 03                	sub    %eax,(%ebx)
 5df:	00 00                	add    %al,(%eax)
 5e1:	f5                   	cmc
 5e2:	00 00                	add    %al,(%eax)
 5e4:	00 f3                	add    %dh,%bl
 5e6:	00 00                	add    %al,(%eax)
 5e8:	00 02                	add    %al,(%edx)
 5ea:	1d 03 00 00 03       	sbb    $0x3000003,%eax
 5ef:	01 00                	add    %eax,(%eax)
 5f1:	00 01                	add    %al,(%ecx)
 5f3:	01 00                	add    %eax,(%eax)
 5f5:	00 05 47 03 00 00    	add    %al,0x347
 5fb:	0e                   	push   %cs
 5fc:	01 00                	add    %eax,(%eax)
 5fe:	00 0c 01             	add    %cl,(%ecx,%eax,1)
 601:	00 00                	add    %al,(%eax)
 603:	08 0b                	or     %cl,(%ebx)
 605:	04 00                	add    $0x0,%al
 607:	00 cc                	add    %cl,%ah
 609:	02 10                	add    (%eax),%dl
 60b:	00 03                	add    %al,(%ebx)
 60d:	59                   	pop    %ecx
 60e:	00 00                	add    %al,(%eax)
 610:	00 31                	add    %dh,(%ecx)
 612:	1e                   	push   %ds
 613:	02 26                	add    (%esi),%ah
 615:	04 00                	add    $0x0,%al
 617:	00 20                	add    %ah,(%eax)
 619:	01 00                	add    %eax,(%eax)
 61b:	00 1e                	add    %bl,(%esi)
 61d:	01 00                	add    %eax,(%eax)
 61f:	00 02                	add    %al,(%edx)
 621:	1a 04 00             	sbb    (%eax,%eax,1),%al
 624:	00 2e                	add    %ch,(%esi)
 626:	01 00                	add    %eax,(%eax)
 628:	00 2c 01             	add    %ch,(%ecx,%eax,1)
 62b:	00 00                	add    %al,(%eax)
 62d:	00 00                	add    %al,(%eax)
 62f:	26 65 02 00          	es add %gs:(%eax),%al
 633:	00 18                	add    %bl,(%eax)
 635:	03 10                	add    (%eax),%edx
 637:	00 3f                	add    %bh,(%edi)
 639:	00 00                	add    %al,(%eax)
 63b:	00 01                	add    %al,(%ecx)
 63d:	4d                   	dec    %ebp
 63e:	06                   	push   %es
 63f:	1e                   	push   %ds
 640:	6f                   	outsl  %ds:(%esi),(%dx)
 641:	02 00                	add    (%eax),%al
 643:	00 05 78 02 00 00    	add    %al,0x278
 649:	3f                   	aas
 64a:	01 00                	add    %eax,(%eax)
 64c:	00 37                	add    %dh,(%edi)
 64e:	01 00                	add    %eax,(%eax)
 650:	00 0e                	add    %cl,(%esi)
 652:	83 02 00             	addl   $0x0,(%edx)
 655:	00 27                	add    %ah,(%edi)
 657:	8f 02                	pop    (%edx)
 659:	00 00                	add    %al,(%eax)
 65b:	34 03                	xor    $0x3,%al
 65d:	10 00                	adc    %al,(%eax)
 65f:	19 00                	sbb    %eax,(%eax)
 661:	00 00                	add    %al,(%eax)
 663:	01 5d 0d             	add    %ebx,0xd(%ebp)
 666:	52                   	push   %edx
 667:	06                   	push   %es
 668:	00 00                	add    %al,(%eax)
 66a:	0e                   	push   %cs
 66b:	9c                   	pushf
 66c:	02 00                	add    (%eax),%al
 66e:	00 11                	add    %dl,(%ecx)
 670:	a7                   	cmpsl  %es:(%edi),%ds:(%esi)
 671:	02 00                	add    (%eax),%al
 673:	00 34 03             	add    %dh,(%ebx,%eax,1)
 676:	10 00                	adc    %al,(%eax)
 678:	19 00                	sbb    %eax,(%eax)
 67a:	00 00                	add    %al,(%eax)
 67c:	0e                   	push   %cs
 67d:	a8 02                	test   $0x2,%al
 67f:	00 00                	add    %al,(%eax)
 681:	08 0b                	or     %cl,(%ebx)
 683:	04 00                	add    $0x0,%al
 685:	00 40 03             	add    %al,0x3(%eax)
 688:	10 00                	adc    %al,(%eax)
 68a:	01 69 00             	add    %ebp,0x0(%ecx)
 68d:	00 00                	add    %al,(%eax)
 68f:	48                   	dec    %eax
 690:	3a 1e                	cmp    (%esi),%bl
 692:	26 04 00             	es add $0x0,%al
 695:	00 02                	add    %al,(%edx)
 697:	1a 04 00             	sbb    (%eax,%eax,1),%al
 69a:	00 61 01             	add    %ah,0x1(%ecx)
 69d:	00 00                	add    %al,(%eax)
 69f:	5f                   	pop    %edi
 6a0:	01 00                	add    %eax,(%eax)
 6a2:	00 00                	add    %al,(%eax)
 6a4:	00 00                	add    %al,(%eax)
 6a6:	0c 2c                	or     $0x2c,%al
 6a8:	03 10                	add    (%eax),%edx
 6aa:	00 b3 02 00 00 00    	add    %dh,0x2(%ebx)
 6b0:	00 28                	add    %ch,(%eax)
 6b2:	2e 02 00             	add    %cs:(%eax),%al
 6b5:	00 60 03             	add    %ah,0x3(%eax)
 6b8:	10 00                	adc    %al,(%eax)
 6ba:	3d 00 00 00 01       	cmp    $0x1000000,%eax
 6bf:	9c                   	pushf
 6c0:	06                   	push   %es
 6c1:	38 02                	cmp    %al,(%edx)
 6c3:	00 00                	add    %al,(%eax)
 6c5:	02 91 00 02 44 02    	add    0x2440200(%ecx),%dl
 6cb:	00 00                	add    %al,(%eax)
 6cd:	6f                   	outsl  %ds:(%esi),(%dx)
 6ce:	01 00                	add    %eax,(%eax)
 6d0:	00 6b 01             	add    %ch,0x1(%ebx)
 6d3:	00 00                	add    %al,(%eax)
 6d5:	29 50 02             	sub    %edx,0x2(%eax)
 6d8:	00 00                	add    %al,(%eax)
 6da:	74 00                	je     6dc <FLAGS+0x6d9>
 6dc:	00 00                	add    %al,(%eax)
 6de:	05 51 02 00 00       	add    $0x251,%eax
 6e3:	86 01                	xchg   %al,(%ecx)
 6e5:	00 00                	add    %al,(%eax)
 6e7:	80 01 00             	addb   $0x0,(%ecx)
 6ea:	00 00                	add    %al,(%eax)
 6ec:	00 00                	add    %al,(%eax)
 6ee:	a8 00                	test   $0x0,%al
 6f0:	00 00                	add    %al,(%eax)
 6f2:	05 00 01 04 9c       	add    $0x9c040100,%eax
 6f7:	02 00                	add    (%eax),%al
 6f9:	00 03                	add    %al,(%ebx)
 6fb:	a1 00 00 00 1d       	mov    0x1d000000,%eax
 700:	d5 00                	aad    $0x0
 702:	00 00                	add    %al,(%eax)
 704:	00 00                	add    %al,(%eax)
 706:	00 00                	add    %al,(%eax)
 708:	e0 03                	loopne 70d <FLAGS+0x70a>
 70a:	10 00                	adc    %al,(%eax)
 70c:	1d 00 00 00 e9       	sbb    $0xe9000000,%eax
 711:	03 00                	add    (%eax),%eax
 713:	00 01                	add    %al,(%ecx)
 715:	04 05                	add    $0x5,%al
 717:	c7 01 00 00 01 04    	movl   $0x4010000,(%ecx)
 71d:	07                   	pop    %es
 71e:	43                   	inc    %ebx
 71f:	02 00                	add    (%eax),%al
 721:	00 04 04             	add    %al,(%esp,%eax,1)
 724:	05 69 6e 74 00       	add    $0x746e69,%eax
 729:	01 08                	add    %ecx,(%eax)
 72b:	05 c2 01 00 00       	add    $0x1c2,%eax
 730:	01 0c 04             	add    %ecx,(%esp,%eax,1)
 733:	1a 02                	sbb    (%edx),%al
 735:	00 00                	add    %al,(%eax)
 737:	01 10                	add    %edx,(%eax)
 739:	04 49                	add    $0x49,%al
 73b:	03 00                	add    (%eax),%eax
 73d:	00 05 d1 03 00 00    	add    %al,0x3d1
 743:	02 0c 05 34 00 00 00 	add    0x34(,%eax,1),%cl
 74a:	67 00 00             	add    %al,(%bx,%si)
 74d:	00 06                	add    %al,(%esi)
 74f:	6d                   	insl   (%dx),%es:(%edi)
 750:	00 00                	add    %al,(%eax)
 752:	00 07                	add    %al,(%edi)
 754:	00 08                	add    %cl,(%eax)
 756:	04 79                	add    $0x79,%al
 758:	00 00                	add    %al,(%eax)
 75a:	00 09                	add    %cl,(%ecx)
 75c:	67 00 00             	add    %al,(%bx,%si)
 75f:	00 01                	add    %al,(%ecx)
 761:	01 06                	add    %eax,(%esi)
 763:	2f                   	das
 764:	02 00                	add    (%eax),%al
 766:	00 0a                	add    %cl,(%edx)
 768:	72 00                	jb     76a <FLAGS+0x767>
 76a:	00 00                	add    %al,(%eax)
 76c:	0b ea                	or     %edx,%ebp
 76e:	02 00                	add    (%eax),%al
 770:	00 03                	add    %al,(%ebx)
 772:	06                   	push   %es
 773:	06                   	push   %es
 774:	0c c5                	or     $0xc5,%al
 776:	03 00                	add    (%eax),%eax
 778:	00 01                	add    %al,(%ecx)
 77a:	04 06                	add    $0x6,%al
 77c:	e0 03                	loopne 781 <FLAGS+0x77e>
 77e:	10 00                	adc    %al,(%eax)
 780:	1d 00 00 00 01       	sbb    $0x1000000,%eax
 785:	9c                   	pushf
 786:	02 eb                	add    %bl,%ch
 788:	03 10                	add    (%eax),%edx
 78a:	00 7e 00             	add    %bh,0x0(%esi)
 78d:	00 00                	add    %al,(%eax)
 78f:	02 f8                	add    %al,%bh
 791:	03 10                	add    (%eax),%edx
 793:	00 50 00             	add    %dl,0x0(%eax)
 796:	00 00                	add    %al,(%eax)
 798:	00 00                	add    %al,(%eax)
 79a:	35 03 00 00 05       	xor    $0x5000003,%eax
 79f:	00 01                	add    %al,(%ecx)
 7a1:	04 35                	add    $0x35,%al
 7a3:	03 00                	add    (%eax),%eax
 7a5:	00 12                	add    %dl,(%edx)
 7a7:	a1 00 00 00 1d       	mov    0x1d000000,%eax
 7ac:	0c 01                	or     $0x1,%al
 7ae:	00 00                	add    %al,(%eax)
 7b0:	1b 01                	sbb    (%ecx),%eax
 7b2:	00 00                	add    %al,(%eax)
 7b4:	00 04 10             	add    %al,(%eax,%edx,1)
 7b7:	00 60 02             	add    %ah,0x2(%eax)
 7ba:	00 00                	add    %al,(%eax)
 7bc:	54                   	push   %esp
 7bd:	04 00                	add    $0x0,%al
 7bf:	00 07                	add    %al,(%edi)
 7c1:	34 04                	xor    $0x4,%al
 7c3:	00 00                	add    %al,(%eax)
 7c5:	02 28                	add    (%eax),%ch
 7c7:	1b 32                	sbb    (%edx),%esi
 7c9:	00 00                	add    %al,(%eax)
 7cb:	00 13                	add    %dl,(%ebx)
 7cd:	04 df                	add    $0xdf,%al
 7cf:	03 00                	add    (%eax),%eax
 7d1:	00 3c 00             	add    %bh,(%eax,%eax,1)
 7d4:	00 00                	add    %al,(%eax)
 7d6:	01 01                	add    %eax,(%ecx)
 7d8:	06                   	push   %es
 7d9:	2f                   	das
 7da:	02 00                	add    (%eax),%al
 7dc:	00 0c 3c             	add    %cl,(%esp,%edi,1)
 7df:	00 00                	add    %al,(%eax)
 7e1:	00 07                	add    %al,(%edi)
 7e3:	3b 04 00             	cmp    (%eax,%eax,1),%eax
 7e6:	00 02                	add    %al,(%edx)
 7e8:	63 18                	arpl   %bx,(%eax)
 7ea:	26 00 00             	add    %al,%es:(%eax)
 7ed:	00 01                	add    %al,(%ecx)
 7ef:	04 05                	add    $0x5,%al
 7f1:	c7 01 00 00 07 9a    	movl   $0x9a070000,(%ecx)
 7f7:	00 00                	add    %al,(%eax)
 7f9:	00 03                	add    %al,(%ebx)
 7fb:	d1 17                	rcll   (%edi)
 7fd:	67 00 00             	add    %al,(%bx,%si)
 800:	00 01                	add    %al,(%ecx)
 802:	04 07                	add    $0x7,%al
 804:	43                   	inc    %ebx
 805:	02 00                	add    (%eax),%al
 807:	00 14 04             	add    %dl,(%esp,%eax,1)
 80a:	05 69 6e 74 00       	add    $0x746e69,%eax
 80f:	01 08                	add    %ecx,(%eax)
 811:	05 c2 01 00 00       	add    $0x1c2,%eax
 816:	01 0c 04             	add    %ecx,(%esp,%eax,1)
 819:	1a 02                	sbb    (%edx),%al
 81b:	00 00                	add    %al,(%eax)
 81d:	01 10                	add    %edx,(%eax)
 81f:	04 49                	add    $0x49,%al
 821:	03 00                	add    (%eax),%eax
 823:	00 0d 9e 01 00 00    	add    %cl,0x19e
 829:	04 0d                	add    $0xd,%al
 82b:	05 6e 00 00 00       	add    $0x6e,%eax
 830:	a0 00 00 00 0e       	mov    0xe000000,%al
 835:	6e                   	outsb  %ds:(%esi),(%dx)
 836:	00 00                	add    %al,(%eax)
 838:	00 00                	add    %al,(%eax)
 83a:	0d 9a 02 00 00       	or     $0x29a,%eax
 83f:	05 10 08 5b 00       	add    $0x5b0810,%eax
 844:	00 00                	add    %al,(%eax)
 846:	b6 00                	mov    $0x0,%dh
 848:	00 00                	add    %al,(%eax)
 84a:	0e                   	push   %cs
 84b:	b6 00                	mov    $0x0,%dh
 84d:	00 00                	add    %al,(%eax)
 84f:	00 0f                	add    %cl,(%edi)
 851:	43                   	inc    %ebx
 852:	00 00                	add    %al,(%eax)
 854:	00 15 b6 00 00 00    	add    %dl,0xb6
 85a:	16                   	push   %ss
 85b:	d1 03                	roll   (%ebx)
 85d:	00 00                	add    %al,(%eax)
 85f:	01 0f                	add    %ecx,(%edi)
 861:	05 6e 00 00 00       	add    $0x6e,%eax
 866:	00 04 10             	add    %al,(%eax,%edx,1)
 869:	00 60 02             	add    %ah,0x2(%eax)
 86c:	00 00                	add    %al,(%eax)
 86e:	01 9c e2 02 00 00 17 	add    %ebx,0x17000002(%edx,%eiz,8)
 875:	f7 03 00 00 01 0f    	testl  $0xf010000,(%ebx)
 87b:	21 bb 00 00 00 c8    	and    %edi,-0x38000000(%ebx)
 881:	01 00                	add    %eax,(%eax)
 883:	00 b6 01 00 00 18    	add    %dh,0x18000001(%esi)
 889:	04 29                	add    $0x29,%al
 88b:	04 00                	add    $0x0,%al
 88d:	00 10                	add    %dl,(%eax)
 88f:	0a 48 00             	or     0x0(%eax),%cl
 892:	00 00                	add    %al,(%eax)
 894:	1f                   	pop    %ds
 895:	02 00                	add    (%eax),%al
 897:	00 0b                	add    %cl,(%ebx)
 899:	02 00                	add    (%eax),%al
 89b:	00 04 0b             	add    %al,(%ebx,%ecx,1)
 89e:	04 00                	add    $0x0,%al
 8a0:	00 13                	add    %dl,(%ebx)
 8a2:	06                   	push   %es
 8a3:	6e                   	outsb  %ds:(%esi),(%dx)
 8a4:	00 00                	add    %al,(%eax)
 8a6:	00 7e 02             	add    %bh,0x2(%esi)
 8a9:	00 00                	add    %al,(%eax)
 8ab:	6a 02                	push   $0x2
 8ad:	00 00                	add    %al,(%eax)
 8af:	08 8b 00 00 00 04    	or     %cl,0x4000000(%ebx)
 8b5:	d8 03                	fadds  (%ebx)
 8b7:	00 00                	add    %al,(%eax)
 8b9:	16                   	push   %ss
 8ba:	0a 5b 00             	or     0x0(%ebx),%bl
 8bd:	00 00                	add    %al,(%eax)
 8bf:	ec                   	in     (%dx),%al
 8c0:	02 00                	add    (%eax),%al
 8c2:	00 d6                	add    %dl,%dh
 8c4:	02 00                	add    (%eax),%al
 8c6:	00 04 13             	add    %al,(%ebx,%edx,1)
 8c9:	04 00                	add    $0x0,%al
 8cb:	00 29                	add    %ch,(%ecx)
 8cd:	0f b6 00             	movzbl (%eax),%eax
 8d0:	00 00                	add    %al,(%eax)
 8d2:	5b                   	pop    %ebx
 8d3:	03 00                	add    (%eax),%eax
 8d5:	00 55 03             	add    %dl,0x3(%ebp)
 8d8:	00 00                	add    %al,(%eax)
 8da:	09 b8 00 00 00 9f    	or     %edi,-0x61000000(%eax)
 8e0:	01 00                	add    %eax,(%eax)
 8e2:	00 04 43             	add    %al,(%ebx,%eax,2)
 8e5:	04 00                	add    $0x0,%al
 8e7:	00 1b                	add    %bl,(%ebx)
 8e9:	0b 5b 00             	or     0x0(%ebx),%ebx
 8ec:	00 00                	add    %al,(%eax)
 8ee:	79 03                	jns    8f3 <FLAGS+0x8f0>
 8f0:	00 00                	add    %al,(%eax)
 8f2:	71 03                	jno    8f7 <FLAGS+0x8f4>
 8f4:	00 00                	add    %al,(%eax)
 8f6:	19 e2                	sbb    %esp,%edx
 8f8:	02 00                	add    (%eax),%al
 8fa:	00 c8                	add    %cl,%al
 8fc:	00 00                	add    %al,(%eax)
 8fe:	00 01                	add    %al,(%ecx)
 900:	22 09                	and    (%ecx),%cl
 902:	02 fd                	add    %ch,%bh
 904:	02 00                	add    (%eax),%al
 906:	00 02                	add    %al,(%edx)
 908:	f3 02 00             	repz add (%eax),%al
 90b:	00 08                	add    %cl,(%eax)
 90d:	c8 00 00 00          	enter  $0x0,$0x0
 911:	05 07 03 00 00       	add    $0x307,%eax
 916:	1a 13                	sbb    (%ebx),%dl
 918:	03 00                	add    (%eax),%eax
 91a:	00 c8                	add    %cl,%al
 91c:	00 00                	add    %al,(%eax)
 91e:	00 06                	add    %al,(%esi)
 920:	14 03                	adc    $0x3,%al
 922:	00 00                	add    %al,(%eax)
 924:	9e                   	sahf
 925:	03 00                	add    (%eax),%eax
 927:	00 98 03 00 00 03    	add    %bl,0x3000003(%eax)
 92d:	34 05                	xor    $0x5,%al
 92f:	10 00                	adc    %al,(%eax)
 931:	8a 00                	mov    (%eax),%al
 933:	00 00                	add    %al,(%eax)
 935:	00 00                	add    %al,(%eax)
 937:	00 00                	add    %al,(%eax)
 939:	09 d3                	or     %edx,%ebx
 93b:	00 00                	add    %al,(%eax)
 93d:	00 fe                	add    %bh,%dh
 93f:	01 00                	add    %eax,(%eax)
 941:	00 0a                	add    %cl,(%edx)
 943:	63 00                	arpl   %ax,(%eax)
 945:	2d 09 3c 00 00       	sub    $0x3c09,%eax
 94a:	00 b8 03 00 00 b6    	add    %bh,-0x49fffffd(%eax)
 950:	03 00                	add    (%eax),%eax
 952:	00 1b                	add    %bl,(%ebx)
 954:	e2 02                	loop   958 <FLAGS+0x955>
 956:	00 00                	add    %al,(%eax)
 958:	93                   	xchg   %eax,%ebx
 959:	05 10 00 18 00       	add    $0x180010,%eax
 95e:	00 00                	add    %al,(%eax)
 960:	01 32                	add    %esi,(%edx)
 962:	09 02                	or     %eax,(%edx)
 964:	fd                   	std
 965:	02 00                	add    (%eax),%al
 967:	00 02                	add    %al,(%edx)
 969:	f3 02 00             	repz add (%eax),%al
 96c:	00 05 07 03 00 00    	add    %al,0x307
 972:	0b 13                	or     (%ebx),%edx
 974:	03 00                	add    (%eax),%eax
 976:	00 93 05 10 00 18    	add    %dl,0x18001005(%ebx)
 97c:	00 00                	add    %al,(%eax)
 97e:	00 06                	add    %al,(%esi)
 980:	14 03                	adc    $0x3,%al
 982:	00 00                	add    %al,(%eax)
 984:	c6 03 00             	movb   $0x0,(%ebx)
 987:	00 c2                	add    %al,%dl
 989:	03 00                	add    (%eax),%eax
 98b:	00 03                	add    %al,(%ebx)
 98d:	9f                   	lahf
 98e:	05 10 00 8a 00       	add    $0x8a0010,%eax
 993:	00 00                	add    %al,(%eax)
 995:	00 00                	add    %al,(%eax)
 997:	00 09                	add    %cl,(%ecx)
 999:	de 00                	fiadds (%eax)
 99b:	00 00                	add    %al,(%eax)
 99d:	78 02                	js     9a1 <FLAGS+0x99e>
 99f:	00 00                	add    %al,(%eax)
 9a1:	1c 73                	sbb    $0x73,%al
 9a3:	74 72                	je     a17 <FLAGS+0xa14>
 9a5:	00 01                	add    %al,(%ecx)
 9a7:	37                   	aaa
 9a8:	10 b6 00 00 00 01    	adc    %dh,0x1000000(%esi)
 9ae:	53                   	push   %ebx
 9af:	0a 6c 65 6e          	or     0x6e(%ebp,%eiz,2),%ch
 9b3:	00 38                	add    %bh,(%eax)
 9b5:	0b 5b 00             	or     0x0(%ebx),%ebx
 9b8:	00 00                	add    %al,(%eax)
 9ba:	db 03                	fildl  (%ebx)
 9bc:	00 00                	add    %al,(%eax)
 9be:	d7                   	xlat   %ds:(%ebx)
 9bf:	03 00                	add    (%eax),%eax
 9c1:	00 10                	add    %dl,(%eax)
 9c3:	e2 02                	loop   9c7 <FLAGS+0x9c4>
 9c5:	00 00                	add    %al,(%eax)
 9c7:	eb 05                	jmp    9ce <FLAGS+0x9cb>
 9c9:	10 00                	adc    %al,(%eax)
 9cb:	35 00 00 00 3d       	xor    $0x3d000000,%eax
 9d0:	6e                   	outsb  %ds:(%esi),(%dx)
 9d1:	02 00                	add    (%eax),%al
 9d3:	00 02                	add    %al,(%edx)
 9d5:	fd                   	std
 9d6:	02 00                	add    (%eax),%al
 9d8:	00 02                	add    %al,(%edx)
 9da:	f3 02 00             	repz add (%eax),%al
 9dd:	00 05 07 03 00 00    	add    %al,0x307
 9e3:	0b 13                	or     (%ebx),%edx
 9e5:	03 00                	add    (%eax),%eax
 9e7:	00 eb                	add    %ch,%bl
 9e9:	05 10 00 35 00       	add    $0x350010,%eax
 9ee:	00 00                	add    %al,(%eax)
 9f0:	06                   	push   %es
 9f1:	14 03                	adc    $0x3,%al
 9f3:	00 00                	add    %al,(%eax)
 9f5:	ed                   	in     (%dx),%eax
 9f6:	03 00                	add    (%eax),%eax
 9f8:	00 eb                	add    %ch,%bl
 9fa:	03 00                	add    (%eax),%eax
 9fc:	00 03                	add    %al,(%ebx)
 9fe:	13 06                	adc    (%esi),%eax
 a00:	10 00                	adc    %al,(%eax)
 a02:	8a 00                	mov    (%eax),%al
 a04:	00 00                	add    %al,(%eax)
 a06:	00 00                	add    %al,(%eax)
 a08:	03 da                	add    %edx,%ebx
 a0a:	05 10 00 a0 00       	add    $0xa00010,%eax
 a0f:	00 00                	add    %al,(%eax)
 a11:	00 08                	add    %cl,(%eax)
 a13:	ae                   	scas   %es:(%edi),%al
 a14:	00 00                	add    %al,(%eax)
 a16:	00 0a                	add    %cl,(%edx)
 a18:	6c                   	insb   (%dx),%es:(%edi)
 a19:	65 6e                	outsb  %gs:(%esi),(%dx)
 a1b:	00 42 0b             	add    %al,0xb(%edx)
 a1e:	5b                   	pop    %ebx
 a1f:	00 00                	add    %al,(%eax)
 a21:	00 fc                	add    %bh,%ah
 a23:	03 00                	add    (%eax),%eax
 a25:	00 f6                	add    %dh,%dh
 a27:	03 00                	add    (%eax),%eax
 a29:	00 10                	add    %dl,(%eax)
 a2b:	e2 02                	loop   a2f <FLAGS+0xa2c>
 a2d:	00 00                	add    %al,(%eax)
 a2f:	77 04                	ja     a35 <FLAGS+0xa32>
 a31:	10 00                	adc    %al,(%eax)
 a33:	38 00                	cmp    %al,(%eax)
 a35:	00 00                	add    %al,(%eax)
 a37:	47                   	inc    %edi
 a38:	d6                   	(bad)
 a39:	02 00                	add    (%eax),%al
 a3b:	00 02                	add    %al,(%edx)
 a3d:	fd                   	std
 a3e:	02 00                	add    (%eax),%al
 a40:	00 02                	add    %al,(%edx)
 a42:	f3 02 00             	repz add (%eax),%al
 a45:	00 05 07 03 00 00    	add    %al,0x307
 a4b:	0b 13                	or     (%ebx),%edx
 a4d:	03 00                	add    (%eax),%eax
 a4f:	00 77 04             	add    %dh,0x4(%edi)
 a52:	10 00                	adc    %al,(%eax)
 a54:	38 00                	cmp    %al,(%eax)
 a56:	00 00                	add    %al,(%eax)
 a58:	06                   	push   %es
 a59:	14 03                	adc    $0x3,%al
 a5b:	00 00                	add    %al,(%eax)
 a5d:	13 04 00             	adc    (%eax,%eax,1),%eax
 a60:	00 11                	add    %dl,(%ecx)
 a62:	04 00                	add    $0x0,%al
 a64:	00 03                	add    %al,(%ebx)
 a66:	a7                   	cmpsl  %es:(%edi),%ds:(%esi)
 a67:	04 10                	add    $0x10,%al
 a69:	00 8a 00 00 00 00    	add    %cl,0x0(%edx)
 a6f:	00 03                	add    %al,(%ebx)
 a71:	6b 04 10 00          	imul   $0x0,(%eax,%edx,1),%eax
 a75:	a0 00 00 00 00       	mov    0x0,%al
 a7a:	00 00                	add    %al,(%eax)
 a7c:	1d 05 04 00 00       	sbb    $0x405,%eax
 a81:	01 07                	add    %eax,(%edi)
 a83:	0d 20 03 00 00       	or     $0x320,%eax
 a88:	01 20                	add    %esp,(%eax)
 a8a:	03 00                	add    (%eax),%eax
 a8c:	00 11                	add    %dl,(%ecx)
 a8e:	ae                   	scas   %es:(%edi),%al
 a8f:	02 00                	add    (%eax),%al
 a91:	00 1f                	add    %bl,(%edi)
 a93:	b6 00                	mov    $0x0,%dh
 a95:	00 00                	add    %al,(%eax)
 a97:	11 fe                	adc    %edi,%esi
 a99:	03 00                	add    (%eax),%eax
 a9b:	00 2c 5b             	add    %ch,(%ebx,%ebx,2)
 a9e:	00 00                	add    %al,(%eax)
 aa0:	00 1e                	add    %bl,(%esi)
 aa2:	f1                   	int1
 aa3:	03 00                	add    (%eax),%eax
 aa5:	00 01                	add    %al,(%ecx)
 aa7:	08 17                	or     %dl,(%edi)
 aa9:	27                   	daa
 aaa:	03 00                	add    (%eax),%eax
 aac:	00 1f                	add    %bl,(%edi)
 aae:	20 69 00             	and    %ch,0x0(%ecx)
 ab1:	01 09                	add    %ecx,(%ecx)
 ab3:	0e                   	push   %cs
 ab4:	5b                   	pop    %ebx
 ab5:	00 00                	add    %al,(%eax)
 ab7:	00 00                	add    %al,(%eax)
 ab9:	00 01                	add    %al,(%ecx)
 abb:	01 02                	add    %eax,(%edx)
 abd:	23 04 00             	and    (%eax,%eax,1),%eax
 ac0:	00 0f                	add    %cl,(%edi)
 ac2:	33 03                	xor    (%ebx),%eax
 ac4:	00 00                	add    %al,(%eax)
 ac6:	01 01                	add    %eax,(%ecx)
 ac8:	08 26                	or     %ah,(%esi)
 aca:	02 00                	add    (%eax),%al
 acc:	00 0c 2c             	add    %cl,(%esp,%ebp,1)
 acf:	03 00                	add    (%eax),%eax
 ad1:	00 00                	add    %al,(%eax)
 ad3:	bd 00 00 00 05       	mov    $0x5000000,%ebp
 ad8:	00 01                	add    %al,(%ecx)
 ada:	04 e5                	add    $0xe5,%al
 adc:	04 00                	add    $0x0,%al
 ade:	00 03                	add    %al,(%ebx)
 ae0:	a1 00 00 00 1d       	mov    0x1d000000,%eax
 ae5:	53                   	push   %ebx
 ae6:	01 00                	add    %eax,(%eax)
 ae8:	00 1b                	add    %bl,(%ebx)
 aea:	01 00                	add    %eax,(%eax)
 aec:	00 60 06             	add    %ah,0x6(%eax)
 aef:	10 00                	adc    %al,(%eax)
 af1:	1f                   	pop    %ds
 af2:	00 00                	add    %al,(%eax)
 af4:	00 b1 06 00 00 01    	add    %dh,0x1000006(%ecx)
 afa:	04 05                	add    $0x5,%al
 afc:	c7 01 00 00 04 9a    	movl   $0x9a040000,(%ecx)
 b02:	00 00                	add    %al,(%eax)
 b04:	00 02                	add    %al,(%edx)
 b06:	d1 17                	rcll   (%edi)
 b08:	39 00                	cmp    %eax,(%eax)
 b0a:	00 00                	add    %al,(%eax)
 b0c:	01 04 07             	add    %eax,(%edi,%eax,1)
 b0f:	43                   	inc    %ebx
 b10:	02 00                	add    (%eax),%al
 b12:	00 05 04 05 69 6e    	add    %al,0x6e690504
 b18:	74 00                	je     b1a <FLAGS+0xb17>
 b1a:	01 08                	add    %ecx,(%eax)
 b1c:	05 c2 01 00 00       	add    $0x1c2,%eax
 b21:	01 0c 04             	add    %ecx,(%esp,%eax,1)
 b24:	1a 02                	sbb    (%edx),%al
 b26:	00 00                	add    %al,(%eax)
 b28:	01 10                	add    %edx,(%eax)
 b2a:	04 49                	add    $0x49,%al
 b2c:	03 00                	add    (%eax),%eax
 b2e:	00 06                	add    %al,(%esi)
 b30:	00 02                	add    %al,(%edx)
 b32:	00 00                	add    %al,(%eax)
 b34:	03 08                	add    (%eax),%ecx
 b36:	06                   	push   %es
 b37:	73 00                	jae    b39 <FLAGS+0xb36>
 b39:	00 00                	add    %al,(%eax)
 b3b:	02 73 00             	add    0x0(%ebx),%dh
 b3e:	00 00                	add    %al,(%eax)
 b40:	02 2d 00 00 00 00    	add    0x0,%ch
 b46:	07                   	pop    %es
 b47:	04 80                	add    $0x80,%al
 b49:	00 00                	add    %al,(%eax)
 b4b:	00 01                	add    %al,(%ecx)
 b4d:	01 06                	add    %eax,(%esi)
 b4f:	2f                   	das
 b50:	02 00                	add    (%eax),%al
 b52:	00 08                	add    %cl,(%eax)
 b54:	79 00                	jns    b56 <FLAGS+0xb53>
 b56:	00 00                	add    %al,(%eax)
 b58:	09 9e 01 00 00 01    	or     %ebx,0x1000001(%esi)
 b5e:	07                   	pop    %es
 b5f:	05 40 00 00 00       	add    $0x40,%eax
 b64:	60                   	pusha
 b65:	06                   	push   %es
 b66:	10 00                	adc    %al,(%eax)
 b68:	1f                   	pop    %ds
 b69:	00 00                	add    %al,(%eax)
 b6b:	00 01                	add    %al,(%ecx)
 b6d:	9c                   	pushf
 b6e:	0a 69 63             	or     0x63(%ecx),%ch
 b71:	00 01                	add    %al,(%ecx)
 b73:	07                   	pop    %es
 b74:	11 40 00             	adc    %eax,0x0(%eax)
 b77:	00 00                	add    %al,(%eax)
 b79:	02 91 00 0b 63 00    	add    0x630b00(%ecx),%dl
 b7f:	01 09                	add    %ecx,(%ecx)
 b81:	07                   	pop    %es
 b82:	79 00                	jns    b84 <FLAGS+0xb81>
 b84:	00 00                	add    %al,(%eax)
 b86:	02 91 6f 0c 78 06    	add    0x6780c6f(%ecx),%dl
 b8c:	10 00                	adc    %al,(%eax)
 b8e:	5c                   	pop    %esp
 b8f:	00 00                	add    %al,(%eax)
 b91:	00 00                	add    %al,(%eax)
 b93:	00 ae 00 00 00 05    	add    %ch,0x5000000(%esi)
 b99:	00 01                	add    %al,(%ecx)
 b9b:	04 90                	add    $0x90,%al
 b9d:	05 00 00 02 a1       	add    $0xa1020000,%eax
 ba2:	00 00                	add    %al,(%eax)
 ba4:	00 1d a2 01 00 00    	add    %bl,0x1a2
 baa:	1b 01                	sbb    (%ecx),%eax
 bac:	00 00                	add    %al,(%eax)
 bae:	80 06 10             	addb   $0x10,(%esi)
 bb1:	00 1b                	add    %bl,(%ebx)
 bb3:	00 00                	add    %al,(%eax)
 bb5:	00 29                	add    %ch,(%ecx)
 bb7:	07                   	pop    %es
 bb8:	00 00                	add    %al,(%eax)
 bba:	01 04 05 c7 01 00 00 	add    %eax,0x1c7(,%eax,1)
 bc1:	03 9a 00 00 00 02    	add    0x2000000(%edx),%ebx
 bc7:	d1 17                	rcll   (%edi)
 bc9:	39 00                	cmp    %eax,(%eax)
 bcb:	00 00                	add    %al,(%eax)
 bcd:	01 04 07             	add    %eax,(%edi,%eax,1)
 bd0:	43                   	inc    %ebx
 bd1:	02 00                	add    (%eax),%al
 bd3:	00 04 04             	add    %al,(%esp,%eax,1)
 bd6:	05 69 6e 74 00       	add    $0x746e69,%eax
 bdb:	01 08                	add    %ecx,(%eax)
 bdd:	05 c2 01 00 00       	add    $0x1c2,%eax
 be2:	01 0c 04             	add    %ecx,(%esp,%eax,1)
 be5:	1a 02                	sbb    (%edx),%al
 be7:	00 00                	add    %al,(%eax)
 be9:	01 10                	add    %edx,(%eax)
 beb:	04 49                	add    $0x49,%al
 bed:	03 00                	add    (%eax),%eax
 bef:	00 05 9a 02 00 00    	add    %al,0x29a
 bf5:	01 03                	add    %eax,(%ebx)
 bf7:	08 2d 00 00 00 80    	or     %ch,0x80000000
 bfd:	06                   	push   %es
 bfe:	10 00                	adc    %al,(%eax)
 c00:	1b 00                	sbb    (%eax),%eax
 c02:	00 00                	add    %al,(%eax)
 c04:	01 9c 9f 00 00 00 06 	add    %ebx,0x6000000(%edi,%ebx,4)
 c0b:	73 74                	jae    c81 <FLAGS+0xc7e>
 c0d:	72 00                	jb     c0f <FLAGS+0xc0c>
 c0f:	01 03                	add    %eax,(%ebx)
 c11:	1b 9f 00 00 00 2b    	sbb    0x2b000000(%edi),%ebx
 c17:	04 00                	add    $0x0,%al
 c19:	00 27                	add    %ah,(%edi)
 c1b:	04 00                	add    $0x0,%al
 c1d:	00 07                	add    %al,(%edi)
 c1f:	6c                   	insb   (%dx),%es:(%edi)
 c20:	65 6e                	outsb  %gs:(%esi),(%dx)
 c22:	00 01                	add    %al,(%ecx)
 c24:	04 09                	add    $0x9,%al
 c26:	2d 00 00 00 3b       	sub    $0x3b000000,%eax
 c2b:	04 00                	add    $0x0,%al
 c2d:	00 37                	add    %dh,(%edi)
 c2f:	04 00                	add    $0x0,%al
 c31:	00 00                	add    %al,(%eax)
 c33:	08 04 ac             	or     %al,(%esp,%ebp,4)
 c36:	00 00                	add    %al,(%eax)
 c38:	00 01                	add    %al,(%ecx)
 c3a:	01 06                	add    %eax,(%esi)
 c3c:	2f                   	das
 c3d:	02 00                	add    (%eax),%al
 c3f:	00 09                	add    %cl,(%ecx)
 c41:	a5                   	movsl  %ds:(%esi),%es:(%edi)
 c42:	00 00                	add    %al,(%eax)
 c44:	00 00                	add    %al,(%eax)
 c46:	1f                   	pop    %ds
 c47:	00 00                	add    %al,(%eax)
 c49:	00 05 00 01 04 1e    	add    %al,0x1e040100
 c4f:	06                   	push   %es
 c50:	00 00                	add    %al,(%eax)
 c52:	01 a0 07 00 00 f5    	add    %esp,-0xafffff9(%eax)
 c58:	00 00                	add    %al,(%eax)
 c5a:	00 4a 04             	add    %cl,0x4(%edx)
 c5d:	00 00                	add    %al,(%eax)
 c5f:	11 00                	adc    %eax,(%eax)
 c61:	00 00                	add    %al,(%eax)
 c63:	3c 00                	cmp    $0x0,%al
 c65:	00 00                	add    %al,(%eax)
 c67:	01                   	.byte 0x1
 c68:	80                   	.byte 0x80

Disassembly of section .debug_abbrev:

00000000 <.debug_abbrev>:
   0:	01 11                	add    %edx,(%ecx)
   2:	00 10                	add    %dl,(%eax)
   4:	17                   	pop    %ss
   5:	55                   	push   %ebp
   6:	17                   	pop    %ss
   7:	03 0e                	add    (%esi),%ecx
   9:	1b 0e                	sbb    (%esi),%ecx
   b:	25 0e 13 05 00       	and    $0x5130e,%eax
  10:	00 00                	add    %al,(%eax)
  12:	01 11                	add    %edx,(%ecx)
  14:	01 10                	add    %edx,(%eax)
  16:	17                   	pop    %ss
  17:	11 01                	adc    %eax,(%ecx)
  19:	12 0f                	adc    (%edi),%cl
  1b:	03 0e                	add    (%esi),%ecx
  1d:	1b 0e                	sbb    (%esi),%ecx
  1f:	25 0e 13 05 00       	and    $0x5130e,%eax
  24:	00 02                	add    %al,(%edx)
  26:	2e 00 03             	add    %al,%cs:(%ebx)
  29:	0e                   	push   %cs
  2a:	3f                   	aas
  2b:	19 49 15             	sbb    %ecx,0x15(%ecx)
  2e:	11 01                	adc    %eax,(%ecx)
  30:	12 0f                	adc    (%edi),%cl
  32:	00 00                	add    %al,(%eax)
  34:	03 3b                	add    (%ebx),%edi
  36:	00 00                	add    %al,(%eax)
  38:	00 00                	add    %al,(%eax)
  3a:	01 28                	add    %ebp,(%eax)
  3c:	00 03                	add    %al,(%ebx)
  3e:	0e                   	push   %cs
  3f:	1c 0b                	sbb    $0xb,%al
  41:	00 00                	add    %al,(%eax)
  43:	02 05 00 31 13 02    	add    0x2133100,%al
  49:	17                   	pop    %ss
  4a:	b7 42                	mov    $0x42,%bh
  4c:	17                   	pop    %ss
  4d:	00 00                	add    %al,(%eax)
  4f:	03 24 00             	add    (%eax,%eax,1),%esp
  52:	0b 0b                	or     (%ebx),%ecx
  54:	3e 0b 03             	or     %ds:(%ebx),%eax
  57:	0e                   	push   %cs
  58:	00 00                	add    %al,(%eax)
  5a:	04 05                	add    $0x5,%al
  5c:	00 03                	add    %al,(%ebx)
  5e:	0e                   	push   %cs
  5f:	3a 0b                	cmp    (%ebx),%cl
  61:	3b 0b                	cmp    (%ebx),%ecx
  63:	39 0b                	cmp    %ecx,(%ebx)
  65:	49                   	dec    %ecx
  66:	13 00                	adc    (%eax),%eax
  68:	00 05 34 00 31 13    	add    %al,0x13310034
  6e:	02 17                	add    (%edi),%dl
  70:	b7 42                	mov    $0x42,%bh
  72:	17                   	pop    %ss
  73:	00 00                	add    %al,(%eax)
  75:	06                   	push   %es
  76:	05 00 31 13 02       	add    $0x2133100,%eax
  7b:	18 00                	sbb    %al,(%eax)
  7d:	00 07                	add    %al,(%edi)
  7f:	34 00                	xor    $0x0,%al
  81:	03 0e                	add    (%esi),%ecx
  83:	3a 21                	cmp    (%ecx),%ah
  85:	01 3b                	add    %edi,(%ebx)
  87:	0b 39                	or     (%ecx),%edi
  89:	0b 49 13             	or     0x13(%ecx),%ecx
  8c:	00 00                	add    %al,(%eax)
  8e:	08 1d 01 31 13 52    	or     %bl,0x52133101
  94:	01 b8 42 0b 55 17    	add    %edi,0x17550b42(%eax)
  9a:	58                   	pop    %eax
  9b:	21 01                	and    %eax,(%ecx)
  9d:	59                   	pop    %ecx
  9e:	0b 57 0b             	or     0xb(%edi),%edx
  a1:	00 00                	add    %al,(%eax)
  a3:	09 34 00             	or     %esi,(%eax,%eax,1)
  a6:	03 0e                	add    (%esi),%ecx
  a8:	3a 21                	cmp    (%ecx),%ah
  aa:	01 3b                	add    %edi,(%ebx)
  ac:	0b 39                	or     (%ecx),%edi
  ae:	0b 49 13             	or     0x13(%ecx),%ecx
  b1:	02 18                	add    (%eax),%bl
  b3:	00 00                	add    %al,(%eax)
  b5:	0a 2e                	or     (%esi),%ch
  b7:	01 3f                	add    %edi,(%edi)
  b9:	19 03                	sbb    %eax,(%ebx)
  bb:	0e                   	push   %cs
  bc:	3a 21                	cmp    (%ecx),%ah
  be:	01 3b                	add    %edi,(%ebx)
  c0:	0b 39                	or     (%ecx),%edi
  c2:	21 06                	and    %eax,(%esi)
  c4:	27                   	daa
  c5:	19 11                	sbb    %edx,(%ecx)
  c7:	01 12                	add    %edx,(%edx)
  c9:	06                   	push   %es
  ca:	40                   	inc    %eax
  cb:	18 7a 19             	sbb    %bh,0x19(%edx)
  ce:	01 13                	add    %edx,(%ebx)
  d0:	00 00                	add    %al,(%eax)
  d2:	0b 05 00 03 0e 3a    	or     0x3a0e0300,%eax
  d8:	21 01                	and    %eax,(%ecx)
  da:	3b 0b                	cmp    (%ebx),%ecx
  dc:	39 0b                	cmp    %ecx,(%ebx)
  de:	49                   	dec    %ecx
  df:	13 02                	adc    (%edx),%eax
  e1:	18 00                	sbb    %al,(%eax)
  e3:	00 0c 48             	add    %cl,(%eax,%ecx,2)
  e6:	00 7d 01             	add    %bh,0x1(%ebp)
  e9:	7f 13                	jg     fe <FLAGS+0xfb>
  eb:	00 00                	add    %al,(%eax)
  ed:	0d 34 00 03 08       	or     $0x8030034,%eax
  f2:	3a 21                	cmp    (%ecx),%ah
  f4:	01 3b                	add    %edi,(%ebx)
  f6:	0b 39                	or     (%ecx),%edi
  f8:	0b 49 13             	or     0x13(%ecx),%ecx
  fb:	02 17                	add    (%edi),%dl
  fd:	b7 42                	mov    $0x42,%bh
  ff:	17                   	pop    %ss
 100:	00 00                	add    %al,(%eax)
 102:	0e                   	push   %cs
 103:	34 00                	xor    $0x0,%al
 105:	31 13                	xor    %edx,(%ebx)
 107:	00 00                	add    %al,(%eax)
 109:	0f 16 00             	movhps (%eax),%xmm0
 10c:	03 0e                	add    (%esi),%ecx
 10e:	3a 0b                	cmp    (%ebx),%cl
 110:	3b 0b                	cmp    (%ebx),%ecx
 112:	39 0b                	cmp    %ecx,(%ebx)
 114:	49                   	dec    %ecx
 115:	13 00                	adc    (%eax),%eax
 117:	00 10                	add    %dl,(%eax)
 119:	26 00 49 13          	add    %cl,%es:0x13(%ecx)
 11d:	00 00                	add    %al,(%eax)
 11f:	11 0b                	adc    %ecx,(%ebx)
 121:	01 31                	add    %esi,(%ecx)
 123:	13 11                	adc    (%ecx),%edx
 125:	01 12                	add    %edx,(%edx)
 127:	06                   	push   %es
 128:	00 00                	add    %al,(%eax)
 12a:	12 2e                	adc    (%esi),%ch
 12c:	01 3f                	add    %edi,(%edi)
 12e:	19 03                	sbb    %eax,(%ebx)
 130:	0e                   	push   %cs
 131:	3a 21                	cmp    (%ecx),%ah
 133:	01 3b                	add    %edi,(%ebx)
 135:	0b 39                	or     (%ecx),%edi
 137:	21 06                	and    %eax,(%esi)
 139:	27                   	daa
 13a:	19 20                	sbb    %esp,(%eax)
 13c:	21 01                	and    %eax,(%ecx)
 13e:	01 13                	add    %edx,(%ebx)
 140:	00 00                	add    %al,(%eax)
 142:	13 05 00 03 08 3a    	adc    0x3a080300,%eax
 148:	21 01                	and    %eax,(%ecx)
 14a:	3b 0b                	cmp    (%ebx),%ecx
 14c:	39 0b                	cmp    %ecx,(%ebx)
 14e:	49                   	dec    %ecx
 14f:	13 00                	adc    (%eax),%eax
 151:	00 14 0b             	add    %dl,(%ebx,%ecx,1)
 154:	01 11                	add    %edx,(%ecx)
 156:	01 12                	add    %edx,(%edx)
 158:	06                   	push   %es
 159:	00 00                	add    %al,(%eax)
 15b:	15 2e 01 31 13       	adc    $0x1331012e,%eax
 160:	11 01                	adc    %eax,(%ecx)
 162:	12 06                	adc    (%esi),%al
 164:	40                   	inc    %eax
 165:	18 7a 19             	sbb    %bh,0x19(%edx)
 168:	01 13                	add    %edx,(%ebx)
 16a:	00 00                	add    %al,(%eax)
 16c:	16                   	push   %ss
 16d:	34 00                	xor    $0x0,%al
 16f:	03 0e                	add    (%esi),%ecx
 171:	3a 21                	cmp    (%ecx),%ah
 173:	01 3b                	add    %edi,(%ebx)
 175:	0b 39                	or     (%ecx),%edi
 177:	21 15 49 13 1c 0b    	and    %edx,0xb1c1349
 17d:	00 00                	add    %al,(%eax)
 17f:	17                   	pop    %ss
 180:	34 00                	xor    $0x0,%al
 182:	03 0e                	add    (%esi),%ecx
 184:	3a 21                	cmp    (%ecx),%ah
 186:	01 3b                	add    %edi,(%ebx)
 188:	0b 39                	or     (%ecx),%edi
 18a:	0b 49 13             	or     0x13(%ecx),%ecx
 18d:	1c 21                	sbb    $0x21,%al
 18f:	80 80 2e 00 00 18 0f 	addb   $0xf,0x1800002e(%eax)
 196:	00 0b                	add    %cl,(%ebx)
 198:	21 04 49             	and    %eax,(%ecx,%ecx,2)
 19b:	13 00                	adc    (%eax),%eax
 19d:	00 19                	add    %bl,(%ecx)
 19f:	1d 01 31 13 52       	sbb    $0x52133101,%eax
 1a4:	01 b8 42 0b 11 01    	add    %edi,0x1110b42(%eax)
 1aa:	12 06                	adc    (%esi),%al
 1ac:	58                   	pop    %eax
 1ad:	21 01                	and    %eax,(%ecx)
 1af:	59                   	pop    %ecx
 1b0:	0b 57 21             	or     0x21(%edi),%edx
 1b3:	05 01 13 00 00       	add    $0x1301,%eax
 1b8:	1a 0b                	sbb    (%ebx),%cl
 1ba:	01 00                	add    %eax,(%eax)
 1bc:	00 1b                	add    %bl,(%ebx)
 1be:	34 00                	xor    $0x0,%al
 1c0:	03 08                	add    (%eax),%ecx
 1c2:	3a 21                	cmp    (%ecx),%ah
 1c4:	01 3b                	add    %edi,(%ebx)
 1c6:	0b 39                	or     (%ecx),%edi
 1c8:	0b 49 13             	or     0x13(%ecx),%ecx
 1cb:	00 00                	add    %al,(%eax)
 1cd:	1c 0b                	sbb    $0xb,%al
 1cf:	01 55 17             	add    %edx,0x17(%ebp)
 1d2:	00 00                	add    %al,(%eax)
 1d4:	1d 2e 01 03 0e       	sbb    $0xe03012e,%eax
 1d9:	3a 21                	cmp    (%ecx),%ah
 1db:	02 3b                	add    (%ebx),%bh
 1dd:	0b 39                	or     (%ecx),%edi
 1df:	0b 27                	or     (%edi),%esp
 1e1:	19 49 13             	sbb    %ecx,0x13(%ecx)
 1e4:	20 21                	and    %ah,(%ecx)
 1e6:	03 01                	add    (%ecx),%eax
 1e8:	13 00                	adc    (%eax),%eax
 1ea:	00 1e                	add    %bl,(%esi)
 1ec:	05 00 31 13 00       	add    $0x133100,%eax
 1f1:	00 1f                	add    %bl,(%edi)
 1f3:	11 01                	adc    %eax,(%ecx)
 1f5:	25 0e 13 0b 03       	and    $0x30b130e,%eax
 1fa:	1f                   	pop    %ds
 1fb:	1b 1f                	sbb    (%edi),%ebx
 1fd:	11 01                	adc    %eax,(%ecx)
 1ff:	12 06                	adc    (%esi),%al
 201:	10 17                	adc    %dl,(%edi)
 203:	00 00                	add    %al,(%eax)
 205:	20 24 00             	and    %ah,(%eax,%eax,1)
 208:	0b 0b                	or     (%ebx),%ecx
 20a:	3e 0b 03             	or     %ds:(%ebx),%eax
 20d:	08 00                	or     %al,(%eax)
 20f:	00 21                	add    %ah,(%ecx)
 211:	04 01                	add    $0x1,%al
 213:	03 0e                	add    (%esi),%ecx
 215:	3e 0b 0b             	or     %ds:(%ebx),%ecx
 218:	0b 49 13             	or     0x13(%ecx),%ecx
 21b:	3a 0b                	cmp    (%ebx),%cl
 21d:	3b 0b                	cmp    (%ebx),%ecx
 21f:	39 0b                	cmp    %ecx,(%ebx)
 221:	01 13                	add    %edx,(%ebx)
 223:	00 00                	add    %al,(%eax)
 225:	22 2e                	and    (%esi),%ch
 227:	01 3f                	add    %edi,(%edi)
 229:	19 03                	sbb    %eax,(%ebx)
 22b:	0e                   	push   %cs
 22c:	3a 0b                	cmp    (%ebx),%cl
 22e:	3b 0b                	cmp    (%ebx),%ecx
 230:	39 0b                	cmp    %ecx,(%ebx)
 232:	27                   	daa
 233:	19 49 13             	sbb    %ecx,0x13(%ecx)
 236:	3c 19                	cmp    $0x19,%al
 238:	01 13                	add    %edx,(%ebx)
 23a:	00 00                	add    %al,(%eax)
 23c:	23 05 00 49 13 00    	and    0x134900,%eax
 242:	00 24 2e             	add    %ah,(%esi,%ebp,1)
 245:	01 3f                	add    %edi,(%edi)
 247:	19 03                	sbb    %eax,(%ebx)
 249:	0e                   	push   %cs
 24a:	3a 0b                	cmp    (%ebx),%cl
 24c:	3b 0b                	cmp    (%ebx),%ecx
 24e:	39 0b                	cmp    %ecx,(%ebx)
 250:	20 0b                	and    %cl,(%ebx)
 252:	01 13                	add    %edx,(%ebx)
 254:	00 00                	add    %al,(%eax)
 256:	25 34 00 31 13       	and    $0x13310034,%eax
 25b:	1c 06                	sbb    $0x6,%al
 25d:	00 00                	add    %al,(%eax)
 25f:	26 1d 01 31 13 11    	es sbb $0x11133101,%eax
 265:	01 12                	add    %edx,(%edx)
 267:	06                   	push   %es
 268:	58                   	pop    %eax
 269:	0b 59 0b             	or     0xb(%ecx),%ebx
 26c:	57                   	push   %edi
 26d:	0b 00                	or     (%eax),%eax
 26f:	00 27                	add    %ah,(%edi)
 271:	1d 01 31 13 11       	sbb    $0x11133101,%eax
 276:	01 12                	add    %edx,(%edx)
 278:	06                   	push   %es
 279:	58                   	pop    %eax
 27a:	0b 59 0b             	or     0xb(%ecx),%ebx
 27d:	57                   	push   %edi
 27e:	0b 01                	or     (%ecx),%eax
 280:	13 00                	adc    (%eax),%eax
 282:	00 28                	add    %ch,(%eax)
 284:	2e 01 31             	add    %esi,%cs:(%ecx)
 287:	13 11                	adc    (%ecx),%edx
 289:	01 12                	add    %edx,(%edx)
 28b:	06                   	push   %es
 28c:	40                   	inc    %eax
 28d:	18 7a 19             	sbb    %bh,0x19(%edx)
 290:	00 00                	add    %al,(%eax)
 292:	29 0b                	sub    %ecx,(%ebx)
 294:	01 31                	add    %esi,(%ecx)
 296:	13 55 17             	adc    0x17(%ebp),%edx
 299:	00 00                	add    %al,(%eax)
 29b:	00 01                	add    %al,(%ecx)
 29d:	24 00                	and    $0x0,%al
 29f:	0b 0b                	or     (%ebx),%ecx
 2a1:	3e 0b 03             	or     %ds:(%ebx),%eax
 2a4:	0e                   	push   %cs
 2a5:	00 00                	add    %al,(%eax)
 2a7:	02 48 00             	add    0x0(%eax),%cl
 2aa:	7d 01                	jge    2ad <FLAGS+0x2aa>
 2ac:	7f 13                	jg     2c1 <FLAGS+0x2be>
 2ae:	00 00                	add    %al,(%eax)
 2b0:	03 11                	add    (%ecx),%edx
 2b2:	01 25 0e 13 0b 03    	add    %esp,0x30b130e
 2b8:	1f                   	pop    %ds
 2b9:	1b 1f                	sbb    (%edi),%ebx
 2bb:	11 01                	adc    %eax,(%ecx)
 2bd:	12 06                	adc    (%esi),%al
 2bf:	10 17                	adc    %dl,(%edi)
 2c1:	00 00                	add    %al,(%eax)
 2c3:	04 24                	add    $0x24,%al
 2c5:	00 0b                	add    %cl,(%ebx)
 2c7:	0b 3e                	or     (%esi),%edi
 2c9:	0b 03                	or     (%ebx),%eax
 2cb:	08 00                	or     %al,(%eax)
 2cd:	00 05 2e 01 3f 19    	add    %al,0x193f012e
 2d3:	03 0e                	add    (%esi),%ecx
 2d5:	3a 0b                	cmp    (%ebx),%cl
 2d7:	3b 0b                	cmp    (%ebx),%ecx
 2d9:	39 0b                	cmp    %ecx,(%ebx)
 2db:	27                   	daa
 2dc:	19 49 13             	sbb    %ecx,0x13(%ecx)
 2df:	3c 19                	cmp    $0x19,%al
 2e1:	01 13                	add    %edx,(%ebx)
 2e3:	00 00                	add    %al,(%eax)
 2e5:	06                   	push   %es
 2e6:	05 00 49 13 00       	add    $0x134900,%eax
 2eb:	00 07                	add    %al,(%edi)
 2ed:	18 00                	sbb    %al,(%eax)
 2ef:	00 00                	add    %al,(%eax)
 2f1:	08 0f                	or     %cl,(%edi)
 2f3:	00 0b                	add    %cl,(%ebx)
 2f5:	0b 49 13             	or     0x13(%ecx),%ecx
 2f8:	00 00                	add    %al,(%eax)
 2fa:	09 37                	or     %esi,(%edi)
 2fc:	00 49 13             	add    %cl,0x13(%ecx)
 2ff:	00 00                	add    %al,(%eax)
 301:	0a 26                	or     (%esi),%ah
 303:	00 49 13             	add    %cl,0x13(%ecx)
 306:	00 00                	add    %al,(%eax)
 308:	0b 2e                	or     (%esi),%ebp
 30a:	00 3f                	add    %bh,(%edi)
 30c:	19 03                	sbb    %eax,(%ebx)
 30e:	0e                   	push   %cs
 30f:	3a 0b                	cmp    (%ebx),%cl
 311:	3b 0b                	cmp    (%ebx),%ecx
 313:	39 0b                	cmp    %ecx,(%ebx)
 315:	27                   	daa
 316:	19 3c 19             	sbb    %edi,(%ecx,%ebx,1)
 319:	00 00                	add    %al,(%eax)
 31b:	0c 2e                	or     $0x2e,%al
 31d:	01 3f                	add    %edi,(%edi)
 31f:	19 03                	sbb    %eax,(%ebx)
 321:	0e                   	push   %cs
 322:	3a 0b                	cmp    (%ebx),%cl
 324:	3b 0b                	cmp    (%ebx),%ecx
 326:	39 0b                	cmp    %ecx,(%ebx)
 328:	27                   	daa
 329:	19 11                	sbb    %edx,(%ecx)
 32b:	01 12                	add    %edx,(%edx)
 32d:	06                   	push   %es
 32e:	40                   	inc    %eax
 32f:	18 7a 19             	sbb    %bh,0x19(%edx)
 332:	00 00                	add    %al,(%eax)
 334:	00 01                	add    %al,(%ecx)
 336:	24 00                	and    $0x0,%al
 338:	0b 0b                	or     (%ebx),%ecx
 33a:	3e 0b 03             	or     %ds:(%ebx),%eax
 33d:	0e                   	push   %cs
 33e:	00 00                	add    %al,(%eax)
 340:	02 05 00 31 13 00    	add    0x133100,%al
 346:	00 03                	add    %al,(%ebx)
 348:	48                   	dec    %eax
 349:	00 7d 01             	add    %bh,0x1(%ebp)
 34c:	7f 13                	jg     361 <FLAGS+0x35e>
 34e:	00 00                	add    %al,(%eax)
 350:	04 34                	add    $0x34,%al
 352:	00 03                	add    %al,(%ebx)
 354:	0e                   	push   %cs
 355:	3a 21                	cmp    (%ecx),%ah
 357:	01 3b                	add    %edi,(%ebx)
 359:	0b 39                	or     (%ecx),%edi
 35b:	0b 49 13             	or     0x13(%ecx),%ecx
 35e:	02 17                	add    (%edi),%dl
 360:	b7 42                	mov    $0x42,%bh
 362:	17                   	pop    %ss
 363:	00 00                	add    %al,(%eax)
 365:	05 34 00 31 13       	add    $0x13310034,%eax
 36a:	00 00                	add    %al,(%eax)
 36c:	06                   	push   %es
 36d:	34 00                	xor    $0x0,%al
 36f:	31 13                	xor    %edx,(%ebx)
 371:	02 17                	add    (%edi),%dl
 373:	b7 42                	mov    $0x42,%bh
 375:	17                   	pop    %ss
 376:	00 00                	add    %al,(%eax)
 378:	07                   	pop    %es
 379:	16                   	push   %ss
 37a:	00 03                	add    %al,(%ebx)
 37c:	0e                   	push   %cs
 37d:	3a 0b                	cmp    (%ebx),%cl
 37f:	3b 0b                	cmp    (%ebx),%ecx
 381:	39 0b                	cmp    %ecx,(%ebx)
 383:	49                   	dec    %ecx
 384:	13 00                	adc    (%eax),%eax
 386:	00 08                	add    %cl,(%eax)
 388:	0b 01                	or     (%ecx),%eax
 38a:	55                   	push   %ebp
 38b:	17                   	pop    %ss
 38c:	00 00                	add    %al,(%eax)
 38e:	09 0b                	or     %ecx,(%ebx)
 390:	01 55 17             	add    %edx,0x17(%ebp)
 393:	01 13                	add    %edx,(%ebx)
 395:	00 00                	add    %al,(%eax)
 397:	0a 34 00             	or     (%eax,%eax,1),%dh
 39a:	03 08                	add    (%eax),%ecx
 39c:	3a 21                	cmp    (%ecx),%ah
 39e:	01 3b                	add    %edi,(%ebx)
 3a0:	0b 39                	or     (%ecx),%edi
 3a2:	0b 49 13             	or     0x13(%ecx),%ecx
 3a5:	02 17                	add    (%edi),%dl
 3a7:	b7 42                	mov    $0x42,%bh
 3a9:	17                   	pop    %ss
 3aa:	00 00                	add    %al,(%eax)
 3ac:	0b 0b                	or     (%ebx),%ecx
 3ae:	01 31                	add    %esi,(%ecx)
 3b0:	13 11                	adc    (%ecx),%edx
 3b2:	01 12                	add    %edx,(%edx)
 3b4:	06                   	push   %es
 3b5:	00 00                	add    %al,(%eax)
 3b7:	0c 26                	or     $0x26,%al
 3b9:	00 49 13             	add    %cl,0x13(%ecx)
 3bc:	00 00                	add    %al,(%eax)
 3be:	0d 2e 01 3f 19       	or     $0x193f012e,%eax
 3c3:	03 0e                	add    (%esi),%ecx
 3c5:	3a 0b                	cmp    (%ebx),%cl
 3c7:	3b 0b                	cmp    (%ebx),%ecx
 3c9:	39 0b                	cmp    %ecx,(%ebx)
 3cb:	27                   	daa
 3cc:	19 49 13             	sbb    %ecx,0x13(%ecx)
 3cf:	3c 19                	cmp    $0x19,%al
 3d1:	01 13                	add    %edx,(%ebx)
 3d3:	00 00                	add    %al,(%eax)
 3d5:	0e                   	push   %cs
 3d6:	05 00 49 13 00       	add    $0x134900,%eax
 3db:	00 0f                	add    %cl,(%edi)
 3dd:	0f 00 0b             	str    (%ebx)
 3e0:	21 04 49             	and    %eax,(%ecx,%ecx,2)
 3e3:	13 00                	adc    (%eax),%eax
 3e5:	00 10                	add    %dl,(%eax)
 3e7:	1d 01 31 13 11       	sbb    $0x11133101,%eax
 3ec:	01 12                	add    %edx,(%edx)
 3ee:	06                   	push   %es
 3ef:	58                   	pop    %eax
 3f0:	21 01                	and    %eax,(%ecx)
 3f2:	59                   	pop    %ecx
 3f3:	0b 57 21             	or     0x21(%edi),%edx
 3f6:	09 01                	or     %eax,(%ecx)
 3f8:	13 00                	adc    (%eax),%eax
 3fa:	00 11                	add    %dl,(%ecx)
 3fc:	05 00 03 0e 3a       	add    $0x3a0e0300,%eax
 401:	21 01                	and    %eax,(%ecx)
 403:	3b 21                	cmp    (%ecx),%esp
 405:	07                   	pop    %es
 406:	39 0b                	cmp    %ecx,(%ebx)
 408:	49                   	dec    %ecx
 409:	13 00                	adc    (%eax),%eax
 40b:	00 12                	add    %dl,(%edx)
 40d:	11 01                	adc    %eax,(%ecx)
 40f:	25 0e 13 0b 03       	and    $0x30b130e,%eax
 414:	1f                   	pop    %ds
 415:	1b 1f                	sbb    (%edi),%ebx
 417:	11 01                	adc    %eax,(%ecx)
 419:	12 06                	adc    (%esi),%al
 41b:	10 17                	adc    %dl,(%edi)
 41d:	00 00                	add    %al,(%eax)
 41f:	13 0f                	adc    (%edi),%ecx
 421:	00 0b                	add    %cl,(%ebx)
 423:	0b 03                	or     (%ebx),%eax
 425:	0e                   	push   %cs
 426:	49                   	dec    %ecx
 427:	13 00                	adc    (%eax),%eax
 429:	00 14 24             	add    %dl,(%esp)
 42c:	00 0b                	add    %cl,(%ebx)
 42e:	0b 3e                	or     (%esi),%edi
 430:	0b 03                	or     (%ebx),%eax
 432:	08 00                	or     %al,(%eax)
 434:	00 15 37 00 49 13    	add    %dl,0x13490037
 43a:	00 00                	add    %al,(%eax)
 43c:	16                   	push   %ss
 43d:	2e 01 3f             	add    %edi,%cs:(%edi)
 440:	19 03                	sbb    %eax,(%ebx)
 442:	0e                   	push   %cs
 443:	3a 0b                	cmp    (%ebx),%cl
 445:	3b 0b                	cmp    (%ebx),%ecx
 447:	39 0b                	cmp    %ecx,(%ebx)
 449:	27                   	daa
 44a:	19 49 13             	sbb    %ecx,0x13(%ecx)
 44d:	11 01                	adc    %eax,(%ecx)
 44f:	12 06                	adc    (%esi),%al
 451:	40                   	inc    %eax
 452:	18 7a 19             	sbb    %bh,0x19(%edx)
 455:	01 13                	add    %edx,(%ebx)
 457:	00 00                	add    %al,(%eax)
 459:	17                   	pop    %ss
 45a:	05 00 03 0e 3a       	add    $0x3a0e0300,%eax
 45f:	0b 3b                	or     (%ebx),%edi
 461:	0b 39                	or     (%ecx),%edi
 463:	0b 49 13             	or     0x13(%ecx),%ecx
 466:	02 17                	add    (%edi),%dl
 468:	b7 42                	mov    $0x42,%bh
 46a:	17                   	pop    %ss
 46b:	00 00                	add    %al,(%eax)
 46d:	18 18                	sbb    %bl,(%eax)
 46f:	00 00                	add    %al,(%eax)
 471:	00 19                	add    %bl,(%ecx)
 473:	1d 01 31 13 55       	sbb    $0x55133101,%eax
 478:	17                   	pop    %ss
 479:	58                   	pop    %eax
 47a:	0b 59 0b             	or     0xb(%ecx),%ebx
 47d:	57                   	push   %edi
 47e:	0b 00                	or     (%eax),%eax
 480:	00 1a                	add    %bl,(%edx)
 482:	0b 01                	or     (%ecx),%eax
 484:	31 13                	xor    %edx,(%ebx)
 486:	55                   	push   %ebp
 487:	17                   	pop    %ss
 488:	00 00                	add    %al,(%eax)
 48a:	1b 1d 01 31 13 11    	sbb    0x11133101,%ebx
 490:	01 12                	add    %edx,(%edx)
 492:	06                   	push   %es
 493:	58                   	pop    %eax
 494:	0b 59 0b             	or     0xb(%ecx),%ebx
 497:	57                   	push   %edi
 498:	0b 00                	or     (%eax),%eax
 49a:	00 1c 34             	add    %bl,(%esp,%esi,1)
 49d:	00 03                	add    %al,(%ebx)
 49f:	08 3a                	or     %bh,(%edx)
 4a1:	0b 3b                	or     (%ebx),%edi
 4a3:	0b 39                	or     (%ecx),%edi
 4a5:	0b 49 13             	or     0x13(%ecx),%ecx
 4a8:	02 18                	add    (%eax),%bl
 4aa:	00 00                	add    %al,(%eax)
 4ac:	1d 2e 01 03 0e       	sbb    $0xe03012e,%eax
 4b1:	3a 0b                	cmp    (%ebx),%cl
 4b3:	3b 0b                	cmp    (%ebx),%ecx
 4b5:	39 0b                	cmp    %ecx,(%ebx)
 4b7:	27                   	daa
 4b8:	19 49 13             	sbb    %ecx,0x13(%ecx)
 4bb:	20 0b                	and    %cl,(%ebx)
 4bd:	01 13                	add    %edx,(%ebx)
 4bf:	00 00                	add    %al,(%eax)
 4c1:	1e                   	push   %ds
 4c2:	34 00                	xor    $0x0,%al
 4c4:	03 0e                	add    (%esi),%ecx
 4c6:	3a 0b                	cmp    (%ebx),%cl
 4c8:	3b 0b                	cmp    (%ebx),%ecx
 4ca:	39 0b                	cmp    %ecx,(%ebx)
 4cc:	49                   	dec    %ecx
 4cd:	13 00                	adc    (%eax),%eax
 4cf:	00 1f                	add    %bl,(%edi)
 4d1:	0b 01                	or     (%ecx),%eax
 4d3:	00 00                	add    %al,(%eax)
 4d5:	20 34 00             	and    %dh,(%eax,%eax,1)
 4d8:	03 08                	add    (%eax),%ecx
 4da:	3a 0b                	cmp    (%ebx),%cl
 4dc:	3b 0b                	cmp    (%ebx),%ecx
 4de:	39 0b                	cmp    %ecx,(%ebx)
 4e0:	49                   	dec    %ecx
 4e1:	13 00                	adc    (%eax),%eax
 4e3:	00 00                	add    %al,(%eax)
 4e5:	01 24 00             	add    %esp,(%eax,%eax,1)
 4e8:	0b 0b                	or     (%ebx),%ecx
 4ea:	3e 0b 03             	or     %ds:(%ebx),%eax
 4ed:	0e                   	push   %cs
 4ee:	00 00                	add    %al,(%eax)
 4f0:	02 05 00 49 13 00    	add    0x134900,%al
 4f6:	00 03                	add    %al,(%ebx)
 4f8:	11 01                	adc    %eax,(%ecx)
 4fa:	25 0e 13 0b 03       	and    $0x30b130e,%eax
 4ff:	1f                   	pop    %ds
 500:	1b 1f                	sbb    (%edi),%ebx
 502:	11 01                	adc    %eax,(%ecx)
 504:	12 06                	adc    (%esi),%al
 506:	10 17                	adc    %dl,(%edi)
 508:	00 00                	add    %al,(%eax)
 50a:	04 16                	add    $0x16,%al
 50c:	00 03                	add    %al,(%ebx)
 50e:	0e                   	push   %cs
 50f:	3a 0b                	cmp    (%ebx),%cl
 511:	3b 0b                	cmp    (%ebx),%ecx
 513:	39 0b                	cmp    %ecx,(%ebx)
 515:	49                   	dec    %ecx
 516:	13 00                	adc    (%eax),%eax
 518:	00 05 24 00 0b 0b    	add    %al,0xb0b0024
 51e:	3e 0b 03             	or     %ds:(%ebx),%eax
 521:	08 00                	or     %al,(%eax)
 523:	00 06                	add    %al,(%esi)
 525:	2e 01 3f             	add    %edi,%cs:(%edi)
 528:	19 03                	sbb    %eax,(%ebx)
 52a:	0e                   	push   %cs
 52b:	3a 0b                	cmp    (%ebx),%cl
 52d:	3b 0b                	cmp    (%ebx),%ecx
 52f:	39 0b                	cmp    %ecx,(%ebx)
 531:	27                   	daa
 532:	19 3c 19             	sbb    %edi,(%ecx,%ebx,1)
 535:	01 13                	add    %edx,(%ebx)
 537:	00 00                	add    %al,(%eax)
 539:	07                   	pop    %es
 53a:	0f 00 0b             	str    (%ebx)
 53d:	0b 49 13             	or     0x13(%ecx),%ecx
 540:	00 00                	add    %al,(%eax)
 542:	08 26                	or     %ah,(%esi)
 544:	00 49 13             	add    %cl,0x13(%ecx)
 547:	00 00                	add    %al,(%eax)
 549:	09 2e                	or     %ebp,(%esi)
 54b:	01 3f                	add    %edi,(%edi)
 54d:	19 03                	sbb    %eax,(%ebx)
 54f:	0e                   	push   %cs
 550:	3a 0b                	cmp    (%ebx),%cl
 552:	3b 0b                	cmp    (%ebx),%ecx
 554:	39 0b                	cmp    %ecx,(%ebx)
 556:	27                   	daa
 557:	19 49 13             	sbb    %ecx,0x13(%ecx)
 55a:	11 01                	adc    %eax,(%ecx)
 55c:	12 06                	adc    (%esi),%al
 55e:	40                   	inc    %eax
 55f:	18 7a 19             	sbb    %bh,0x19(%edx)
 562:	00 00                	add    %al,(%eax)
 564:	0a 05 00 03 08 3a    	or     0x3a080300,%al
 56a:	0b 3b                	or     (%ebx),%edi
 56c:	0b 39                	or     (%ecx),%edi
 56e:	0b 49 13             	or     0x13(%ecx),%ecx
 571:	02 18                	add    (%eax),%bl
 573:	00 00                	add    %al,(%eax)
 575:	0b 34 00             	or     (%eax,%eax,1),%esi
 578:	03 08                	add    (%eax),%ecx
 57a:	3a 0b                	cmp    (%ebx),%cl
 57c:	3b 0b                	cmp    (%ebx),%ecx
 57e:	39 0b                	cmp    %ecx,(%ebx)
 580:	49                   	dec    %ecx
 581:	13 02                	adc    (%edx),%eax
 583:	18 00                	sbb    %al,(%eax)
 585:	00 0c 48             	add    %cl,(%eax,%ecx,2)
 588:	00 7d 01             	add    %bh,0x1(%ebp)
 58b:	7f 13                	jg     5a0 <FLAGS+0x59d>
 58d:	00 00                	add    %al,(%eax)
 58f:	00 01                	add    %al,(%ecx)
 591:	24 00                	and    $0x0,%al
 593:	0b 0b                	or     (%ebx),%ecx
 595:	3e 0b 03             	or     %ds:(%ebx),%eax
 598:	0e                   	push   %cs
 599:	00 00                	add    %al,(%eax)
 59b:	02 11                	add    (%ecx),%dl
 59d:	01 25 0e 13 0b 03    	add    %esp,0x30b130e
 5a3:	1f                   	pop    %ds
 5a4:	1b 1f                	sbb    (%edi),%ebx
 5a6:	11 01                	adc    %eax,(%ecx)
 5a8:	12 06                	adc    (%esi),%al
 5aa:	10 17                	adc    %dl,(%edi)
 5ac:	00 00                	add    %al,(%eax)
 5ae:	03 16                	add    (%esi),%edx
 5b0:	00 03                	add    %al,(%ebx)
 5b2:	0e                   	push   %cs
 5b3:	3a 0b                	cmp    (%ebx),%cl
 5b5:	3b 0b                	cmp    (%ebx),%ecx
 5b7:	39 0b                	cmp    %ecx,(%ebx)
 5b9:	49                   	dec    %ecx
 5ba:	13 00                	adc    (%eax),%eax
 5bc:	00 04 24             	add    %al,(%esp)
 5bf:	00 0b                	add    %cl,(%ebx)
 5c1:	0b 3e                	or     (%esi),%edi
 5c3:	0b 03                	or     (%ebx),%eax
 5c5:	08 00                	or     %al,(%eax)
 5c7:	00 05 2e 01 3f 19    	add    %al,0x193f012e
 5cd:	03 0e                	add    (%esi),%ecx
 5cf:	3a 0b                	cmp    (%ebx),%cl
 5d1:	3b 0b                	cmp    (%ebx),%ecx
 5d3:	39 0b                	cmp    %ecx,(%ebx)
 5d5:	27                   	daa
 5d6:	19 49 13             	sbb    %ecx,0x13(%ecx)
 5d9:	11 01                	adc    %eax,(%ecx)
 5db:	12 06                	adc    (%esi),%al
 5dd:	40                   	inc    %eax
 5de:	18 7a 19             	sbb    %bh,0x19(%edx)
 5e1:	01 13                	add    %edx,(%ebx)
 5e3:	00 00                	add    %al,(%eax)
 5e5:	06                   	push   %es
 5e6:	05 00 03 08 3a       	add    $0x3a080300,%eax
 5eb:	0b 3b                	or     (%ebx),%edi
 5ed:	0b 39                	or     (%ecx),%edi
 5ef:	0b 49 13             	or     0x13(%ecx),%ecx
 5f2:	02 17                	add    (%edi),%dl
 5f4:	b7 42                	mov    $0x42,%bh
 5f6:	17                   	pop    %ss
 5f7:	00 00                	add    %al,(%eax)
 5f9:	07                   	pop    %es
 5fa:	34 00                	xor    $0x0,%al
 5fc:	03 08                	add    (%eax),%ecx
 5fe:	3a 0b                	cmp    (%ebx),%cl
 600:	3b 0b                	cmp    (%ebx),%ecx
 602:	39 0b                	cmp    %ecx,(%ebx)
 604:	49                   	dec    %ecx
 605:	13 02                	adc    (%edx),%eax
 607:	17                   	pop    %ss
 608:	b7 42                	mov    $0x42,%bh
 60a:	17                   	pop    %ss
 60b:	00 00                	add    %al,(%eax)
 60d:	08 0f                	or     %cl,(%edi)
 60f:	00 0b                	add    %cl,(%ebx)
 611:	0b 49 13             	or     0x13(%ecx),%ecx
 614:	00 00                	add    %al,(%eax)
 616:	09 26                	or     %esp,(%esi)
 618:	00 49 13             	add    %cl,0x13(%ecx)
 61b:	00 00                	add    %al,(%eax)
 61d:	00 01                	add    %al,(%ecx)
 61f:	11 00                	adc    %eax,(%eax)
 621:	10 17                	adc    %dl,(%edi)
 623:	55                   	push   %ebp
 624:	17                   	pop    %ss
 625:	03 0e                	add    (%esi),%ecx
 627:	1b 0e                	sbb    (%esi),%ecx
 629:	25 0e 13 05 00       	and    $0x5130e,%eax
	...

Disassembly of section .debug_aranges:

00000000 <.debug_aranges>:
   0:	24 00                	and    $0x0,%al
   2:	00 00                	add    %al,(%eax)
   4:	02 00                	add    (%eax),%al
   6:	00 00                	add    %al,(%eax)
   8:	00 00                	add    %al,(%eax)
   a:	04 00                	add    $0x0,%al
   c:	00 00                	add    %al,(%eax)
   e:	00 00                	add    %al,(%eax)
  10:	e1 06                	loope  18 <FLAGS+0x15>
  12:	10 00                	adc    %al,(%eax)
  14:	03 00                	add    (%eax),%eax
  16:	00 00                	add    %al,(%eax)
  18:	f0 06                	lock push %es
  1a:	10 00                	adc    %al,(%eax)
  1c:	03 00                	add    (%eax),%eax
	...
  26:	00 00                	add    %al,(%eax)
  28:	1c 00                	sbb    $0x0,%al
  2a:	00 00                	add    %al,(%eax)
  2c:	02 00                	add    (%eax),%al
  2e:	23 00                	and    (%eax),%eax
  30:	00 00                	add    %al,(%eax)
  32:	04 00                	add    $0x0,%al
  34:	00 00                	add    %al,(%eax)
  36:	00 00                	add    %al,(%eax)
  38:	55                   	push   %ebp
  39:	01 10                	add    %edx,(%eax)
  3b:	00 10                	add    %dl,(%eax)
	...
  45:	00 00                	add    %al,(%eax)
  47:	00 1c 00             	add    %bl,(%eax,%eax,1)
  4a:	00 00                	add    %al,(%eax)
  4c:	02 00                	add    (%eax),%al
  4e:	54                   	push   %esp
  4f:	00 00                	add    %al,(%eax)
  51:	00 04 00             	add    %al,(%eax,%eax,1)
  54:	00 00                	add    %al,(%eax)
  56:	00 00                	add    %al,(%eax)
  58:	70 01                	jo     5b <FLAGS+0x58>
  5a:	10 00                	adc    %al,(%eax)
  5c:	6d                   	insl   (%dx),%es:(%edi)
  5d:	02 00                	add    (%eax),%al
	...
  67:	00 1c 00             	add    %bl,(%eax,%eax,1)
  6a:	00 00                	add    %al,(%eax)
  6c:	02 00                	add    (%eax),%al
  6e:	ee                   	out    %al,(%dx)
  6f:	06                   	push   %es
  70:	00 00                	add    %al,(%eax)
  72:	04 00                	add    $0x0,%al
  74:	00 00                	add    %al,(%eax)
  76:	00 00                	add    %al,(%eax)
  78:	e0 03                	loopne 7d <FLAGS+0x7a>
  7a:	10 00                	adc    %al,(%eax)
  7c:	1d 00 00 00 00       	sbb    $0x0,%eax
  81:	00 00                	add    %al,(%eax)
  83:	00 00                	add    %al,(%eax)
  85:	00 00                	add    %al,(%eax)
  87:	00 1c 00             	add    %bl,(%eax,%eax,1)
  8a:	00 00                	add    %al,(%eax)
  8c:	02 00                	add    (%eax),%al
  8e:	9a 07 00 00 04 00 00 	lcall  $0x0,$0x4000007
  95:	00 00                	add    %al,(%eax)
  97:	00 00                	add    %al,(%eax)
  99:	04 10                	add    $0x10,%al
  9b:	00 60 02             	add    %ah,0x2(%eax)
	...
  a6:	00 00                	add    %al,(%eax)
  a8:	1c 00                	sbb    $0x0,%al
  aa:	00 00                	add    %al,(%eax)
  ac:	02 00                	add    (%eax),%al
  ae:	d3 0a                	rorl   %cl,(%edx)
  b0:	00 00                	add    %al,(%eax)
  b2:	04 00                	add    $0x0,%al
  b4:	00 00                	add    %al,(%eax)
  b6:	00 00                	add    %al,(%eax)
  b8:	60                   	pusha
  b9:	06                   	push   %es
  ba:	10 00                	adc    %al,(%eax)
  bc:	1f                   	pop    %ds
	...
  c5:	00 00                	add    %al,(%eax)
  c7:	00 1c 00             	add    %bl,(%eax,%eax,1)
  ca:	00 00                	add    %al,(%eax)
  cc:	02 00                	add    (%eax),%al
  ce:	94                   	xchg   %eax,%esp
  cf:	0b 00                	or     (%eax),%eax
  d1:	00 04 00             	add    %al,(%eax,%eax,1)
  d4:	00 00                	add    %al,(%eax)
  d6:	00 00                	add    %al,(%eax)
  d8:	80 06 10             	addb   $0x10,(%esi)
  db:	00 1b                	add    %bl,(%ebx)
	...
  e5:	00 00                	add    %al,(%eax)
  e7:	00 24 00             	add    %ah,(%eax,%eax,1)
  ea:	00 00                	add    %al,(%eax)
  ec:	02 00                	add    (%eax),%al
  ee:	46                   	inc    %esi
  ef:	0c 00                	or     $0x0,%al
  f1:	00 04 00             	add    %al,(%eax,%eax,1)
  f4:	00 00                	add    %al,(%eax)
  f6:	00 00                	add    %al,(%eax)
  f8:	ee                   	out    %al,(%dx)
  f9:	06                   	push   %es
  fa:	10 00                	adc    %al,(%eax)
  fc:	02 00                	add    (%eax),%al
  fe:	00 00                	add    %al,(%eax)
 100:	f8                   	clc
 101:	06                   	push   %es
 102:	10 00                	adc    %al,(%eax)
 104:	02 00                	add    (%eax),%al
	...

Disassembly of section .debug_str:

00000000 <.debug_str>:
   0:	61                   	popa
   1:	72 63                	jb     66 <FLAGS+0x63>
   3:	68 2f 69 33 38       	push   $0x3833692f
   8:	36 2f                	ss das
   a:	63 72 74             	arpl   %si,0x74(%edx)
   d:	69 2e 53 00 2f 68    	imul   $0x682f0053,(%esi),%ebp
  13:	6f                   	outsl  %ds:(%esi),(%dx)
  14:	6d                   	insl   (%dx),%es:(%edi)
  15:	65 2f                	gs das
  17:	61                   	popa
  18:	64 69 74 68 79 61 2f 	imul   $0x6f442f61,%fs:0x79(%eax,%ebp,2),%esi
  1f:	44 6f 
  21:	63 75 6d             	arpl   %si,0x6d(%ebp)
  24:	65 6e                	outsb  %gs:(%esi),(%dx)
  26:	74 73                	je     9b <FLAGS+0x98>
  28:	2f                   	das
  29:	41                   	inc    %ecx
  2a:	64 69 4f 53 2f 41 64 	imul   $0x6964412f,%fs:0x53(%edi),%ecx
  31:	69 
  32:	4f                   	dec    %edi
  33:	53                   	push   %ebx
  34:	2f                   	das
  35:	6b 65 72 6e          	imul   $0x6e,0x72(%ebp),%esp
  39:	65 6c                	gs insb (%dx),%es:(%edi)
  3b:	00 47 4e             	add    %al,0x4e(%edi)
  3e:	55                   	push   %ebp
  3f:	20 41 53             	and    %al,0x53(%ecx)
  42:	20 32                	and    %dh,(%edx)
  44:	2e 34 31             	cs xor $0x31,%al
  47:	00 61 72             	add    %ah,0x72(%ecx)
  4a:	63 68 2f             	arpl   %bp,0x2f(%eax)
  4d:	69 33 38 36 2f 62    	imul   $0x622f3638,(%ebx),%esi
  53:	6f                   	outsl  %ds:(%esi),(%dx)
  54:	6f                   	outsl  %ds:(%esi),(%dx)
  55:	74 2e                	je     85 <FLAGS+0x82>
  57:	53                   	push   %ebx
  58:	00 5f 73             	add    %bl,0x73(%edi)
  5b:	74 61                	je     be <FLAGS+0xbb>
  5d:	72 74                	jb     d3 <FLAGS+0xd0>
  5f:	00 56 47             	add    %dl,0x47(%esi)
  62:	41                   	inc    %ecx
  63:	5f                   	pop    %edi
  64:	43                   	inc    %ebx
  65:	4f                   	dec    %edi
  66:	4c                   	dec    %esp
  67:	4f                   	dec    %edi
  68:	52                   	push   %edx
  69:	5f                   	pop    %edi
  6a:	4c                   	dec    %esp
  6b:	49                   	dec    %ecx
  6c:	47                   	inc    %edi
  6d:	48                   	dec    %eax
  6e:	54                   	push   %esp
  6f:	5f                   	pop    %edi
  70:	43                   	inc    %ebx
  71:	59                   	pop    %ecx
  72:	41                   	inc    %ecx
  73:	4e                   	dec    %esi
  74:	00 74 65 72          	add    %dh,0x72(%ebp,%eiz,2)
  78:	6d                   	insl   (%dx),%es:(%edi)
  79:	69 6e 61 6c 5f 77 72 	imul   $0x72775f6c,0x61(%esi),%ebp
  80:	69 74 65 73 74 72 69 	imul   $0x6e697274,0x73(%ebp,%eiz,2),%esi
  87:	6e 
  88:	67 00 69 6e          	add    %ch,0x6e(%bx,%di)
  8c:	64 65 78 00          	fs gs js 90 <FLAGS+0x8d>
  90:	73 68                	jae    fa <FLAGS+0xf7>
  92:	6f                   	outsl  %ds:(%esi),(%dx)
  93:	72 74                	jb     109 <FLAGS+0x106>
  95:	20 69 6e             	and    %ch,0x6e(%ecx)
  98:	74 00                	je     9a <FLAGS+0x97>
  9a:	73 69                	jae    105 <FLAGS+0x102>
  9c:	7a 65                	jp     103 <FLAGS+0x100>
  9e:	5f                   	pop    %edi
  9f:	74 00                	je     a1 <FLAGS+0x9e>
  a1:	47                   	inc    %edi
  a2:	4e                   	dec    %esi
  a3:	55                   	push   %ebp
  a4:	20 43 31             	and    %al,0x31(%ebx)
  a7:	31 20                	xor    %esp,(%eax)
  a9:	31 31                	xor    %esi,(%ecx)
  ab:	2e 32 2e             	xor    %cs:(%esi),%ch
  ae:	30 20                	xor    %ah,(%eax)
  b0:	2d 6d 74 75 6e       	sub    $0x6e75746d,%eax
  b5:	65 3d 67 65 6e 65    	gs cmp $0x656e6567,%eax
  bb:	72 69                	jb     126 <FLAGS+0x123>
  bd:	63 20                	arpl   %sp,(%eax)
  bf:	2d 6d 61 72 63       	sub    $0x6372616d,%eax
  c4:	68 3d 70 65 6e       	push   $0x6e65703d
  c9:	74 69                	je     134 <FLAGS+0x131>
  cb:	75 6d                	jne    13a <FLAGS+0x137>
  cd:	70 72                	jo     141 <FLAGS+0x13e>
  cf:	6f                   	outsl  %ds:(%esi),(%dx)
  d0:	20 2d 67 20 2d 4f    	and    %ch,0x4f2d2067
  d6:	32 20                	xor    (%eax),%ah
  d8:	2d 73 74 64 3d       	sub    $0x3d647473,%eax
  dd:	67 6e                	outsb  %ds:(%si),(%dx)
  df:	75 31                	jne    112 <FLAGS+0x10f>
  e1:	31 20                	xor    %esp,(%eax)
  e3:	2d 66 66 72 65       	sub    $0x65726666,%eax
  e8:	65 73 74             	gs jae 15f <FLAGS+0x15c>
  eb:	61                   	popa
  ec:	6e                   	outsb  %ds:(%esi),(%dx)
  ed:	64 69 6e 67 00 74 65 	imul   $0x72657400,%fs:0x67(%esi),%ebp
  f4:	72 
  f5:	6d                   	insl   (%dx),%es:(%edi)
  f6:	69 6e 61 6c 5f 70 75 	imul   $0x75705f6c,0x61(%esi),%ebp
  fd:	74 65                	je     164 <FLAGS+0x161>
  ff:	6e                   	outsb  %ds:(%esi),(%dx)
 100:	74 72                	je     174 <FLAGS+0x171>
 102:	79 61                	jns    165 <FLAGS+0x162>
 104:	74 00                	je     106 <FLAGS+0x103>
 106:	56                   	push   %esi
 107:	47                   	inc    %edi
 108:	41                   	inc    %ecx
 109:	5f                   	pop    %edi
 10a:	43                   	inc    %ebx
 10b:	4f                   	dec    %edi
 10c:	4c                   	dec    %esp
 10d:	4f                   	dec    %edi
 10e:	52                   	push   %edx
 10f:	5f                   	pop    %edi
 110:	4c                   	dec    %esp
 111:	49                   	dec    %ecx
 112:	47                   	inc    %edi
 113:	48                   	dec    %eax
 114:	54                   	push   %esp
 115:	5f                   	pop    %edi
 116:	4d                   	dec    %ebp
 117:	41                   	inc    %ecx
 118:	47                   	inc    %edi
 119:	45                   	inc    %ebp
 11a:	4e                   	dec    %esi
 11b:	54                   	push   %esp
 11c:	41                   	inc    %ecx
 11d:	00 76 67             	add    %dh,0x67(%esi)
 120:	61                   	popa
 121:	5f                   	pop    %edi
 122:	65 6e                	outsb  %gs:(%esi),(%dx)
 124:	74 72                	je     198 <FLAGS+0x195>
 126:	79 00                	jns    128 <FLAGS+0x125>
 128:	56                   	push   %esi
 129:	47                   	inc    %edi
 12a:	41                   	inc    %ecx
 12b:	5f                   	pop    %edi
 12c:	48                   	dec    %eax
 12d:	45                   	inc    %ebp
 12e:	49                   	dec    %ecx
 12f:	47                   	inc    %edi
 130:	48                   	dec    %eax
 131:	54                   	push   %esp
 132:	00 63 68             	add    %ah,0x68(%ebx)
 135:	61                   	popa
 136:	72 61                	jb     199 <FLAGS+0x196>
 138:	63 74 65 72          	arpl   %si,0x72(%ebp,%eiz,2)
 13c:	5f                   	pop    %edi
 13d:	63 6f 6c             	arpl   %bp,0x6c(%edi)
 140:	6f                   	outsl  %ds:(%esi),(%dx)
 141:	72 00                	jb     143 <FLAGS+0x140>
 143:	56                   	push   %esi
 144:	47                   	inc    %edi
 145:	41                   	inc    %ecx
 146:	5f                   	pop    %edi
 147:	43                   	inc    %ebx
 148:	4f                   	dec    %edi
 149:	4c                   	dec    %esp
 14a:	4f                   	dec    %edi
 14b:	52                   	push   %edx
 14c:	5f                   	pop    %edi
 14d:	4c                   	dec    %esp
 14e:	49                   	dec    %ecx
 14f:	47                   	inc    %edi
 150:	48                   	dec    %eax
 151:	54                   	push   %esp
 152:	5f                   	pop    %edi
 153:	47                   	inc    %edi
 154:	52                   	push   %edx
 155:	45                   	inc    %ebp
 156:	45                   	inc    %ebp
 157:	4e                   	dec    %esi
 158:	00 74 65 72          	add    %dh,0x72(%ebp,%eiz,2)
 15c:	6d                   	insl   (%dx),%es:(%edi)
 15d:	69 6e 61 6c 5f 63 6f 	imul   $0x6f635f6c,0x61(%esi),%ebp
 164:	6c                   	insb   (%dx),%es:(%edi)
 165:	75 6d                	jne    1d4 <FLAGS+0x1d1>
 167:	6e                   	outsb  %ds:(%esi),(%dx)
 168:	00 56 47             	add    %dl,0x47(%esi)
 16b:	41                   	inc    %ecx
 16c:	5f                   	pop    %edi
 16d:	43                   	inc    %ebx
 16e:	4f                   	dec    %edi
 16f:	4c                   	dec    %esp
 170:	4f                   	dec    %edi
 171:	52                   	push   %edx
 172:	5f                   	pop    %edi
 173:	42                   	inc    %edx
 174:	52                   	push   %edx
 175:	4f                   	dec    %edi
 176:	57                   	push   %edi
 177:	4e                   	dec    %esi
 178:	00 75 69             	add    %dh,0x69(%ebp)
 17b:	6e                   	outsb  %ds:(%esi),(%dx)
 17c:	74 38                	je     1b6 <FLAGS+0x1b3>
 17e:	5f                   	pop    %edi
 17f:	74 00                	je     181 <FLAGS+0x17e>
 181:	56                   	push   %esi
 182:	47                   	inc    %edi
 183:	41                   	inc    %ecx
 184:	5f                   	pop    %edi
 185:	43                   	inc    %ebx
 186:	4f                   	dec    %edi
 187:	4c                   	dec    %esp
 188:	4f                   	dec    %edi
 189:	52                   	push   %edx
 18a:	5f                   	pop    %edi
 18b:	44                   	inc    %esp
 18c:	41                   	inc    %ecx
 18d:	52                   	push   %edx
 18e:	4b                   	dec    %ebx
 18f:	5f                   	pop    %edi
 190:	47                   	inc    %edi
 191:	52                   	push   %edx
 192:	45                   	inc    %ebp
 193:	59                   	pop    %ecx
 194:	00 74 65 72          	add    %dh,0x72(%ebp,%eiz,2)
 198:	6d                   	insl   (%dx),%es:(%edi)
 199:	69 6e 61 6c 5f 70 75 	imul   $0x75705f6c,0x61(%esi),%ebp
 1a0:	74 63                	je     205 <FLAGS+0x202>
 1a2:	68 61 72 00 76       	push   $0x76007261
 1a7:	69 64 65 6f 5f 6d 65 	imul   $0x6d656d5f,0x6f(%ebp,%eiz,2),%esp
 1ae:	6d 
 1af:	6f                   	outsl  %ds:(%esi),(%dx)
 1b0:	72 79                	jb     22b <FLAGS+0x228>
 1b2:	00 56 47             	add    %dl,0x47(%esi)
 1b5:	41                   	inc    %ecx
 1b6:	5f                   	pop    %edi
 1b7:	43                   	inc    %ebx
 1b8:	4f                   	dec    %edi
 1b9:	4c                   	dec    %esp
 1ba:	4f                   	dec    %edi
 1bb:	52                   	push   %edx
 1bc:	5f                   	pop    %edi
 1bd:	43                   	inc    %ebx
 1be:	59                   	pop    %ecx
 1bf:	41                   	inc    %ecx
 1c0:	4e                   	dec    %esi
 1c1:	00 6c 6f 6e          	add    %ch,0x6e(%edi,%ebp,2)
 1c5:	67 20 6c 6f          	and    %ch,0x6f(%si)
 1c9:	6e                   	outsb  %ds:(%esi),(%dx)
 1ca:	67 20 69 6e          	and    %ch,0x6e(%bx,%di)
 1ce:	74 00                	je     1d0 <FLAGS+0x1cd>
 1d0:	56                   	push   %esi
 1d1:	47                   	inc    %edi
 1d2:	41                   	inc    %ecx
 1d3:	5f                   	pop    %edi
 1d4:	43                   	inc    %ebx
 1d5:	4f                   	dec    %edi
 1d6:	4c                   	dec    %esp
 1d7:	4f                   	dec    %edi
 1d8:	52                   	push   %edx
 1d9:	5f                   	pop    %edi
 1da:	47                   	inc    %edi
 1db:	52                   	push   %edx
 1dc:	45                   	inc    %ebp
 1dd:	45                   	inc    %ebp
 1de:	4e                   	dec    %esi
 1df:	00 74 65 72          	add    %dh,0x72(%ebp,%eiz,2)
 1e3:	6d                   	insl   (%dx),%es:(%edi)
 1e4:	69 6e 61 6c 5f 73 63 	imul   $0x63735f6c,0x61(%esi),%ebp
 1eb:	72 6f                	jb     25c <FLAGS+0x259>
 1ed:	6c                   	insb   (%dx),%es:(%edi)
 1ee:	6c                   	insb   (%dx),%es:(%edi)
 1ef:	00 74 65 72          	add    %dh,0x72(%ebp,%eiz,2)
 1f3:	6d                   	insl   (%dx),%es:(%edi)
 1f4:	69 6e 61 6c 5f 62 75 	imul   $0x75625f6c,0x61(%esi),%ebp
 1fb:	66 66 65 72 00       	data16 data16 gs jb 200 <FLAGS+0x1fd>
 200:	74 65                	je     267 <FLAGS+0x264>
 202:	72 6d                	jb     271 <FLAGS+0x26e>
 204:	69 6e 61 6c 5f 77 72 	imul   $0x72775f6c,0x61(%esi),%ebp
 20b:	69 74 65 00 66 6f 72 	imul   $0x65726f66,0x0(%ebp,%eiz,2),%esi
 212:	65 
 213:	67 72 6f             	addr16 jb 285 <FLAGS+0x282>
 216:	75 6e                	jne    286 <FLAGS+0x283>
 218:	64 00 6c 6f 6e       	add    %ch,%fs:0x6e(%edi,%ebp,2)
 21d:	67 20 64 6f          	and    %ah,0x6f(%si)
 221:	75 62                	jne    285 <FLAGS+0x282>
 223:	6c                   	insb   (%dx),%es:(%edi)
 224:	65 00 75 6e          	add    %dh,%gs:0x6e(%ebp)
 228:	73 69                	jae    293 <FLAGS+0x290>
 22a:	67 6e                	outsb  %ds:(%si),(%dx)
 22c:	65 64 20 63 68       	gs and %ah,%fs:0x68(%ebx)
 231:	61                   	popa
 232:	72 00                	jb     234 <FLAGS+0x231>
 234:	56                   	push   %esi
 235:	47                   	inc    %edi
 236:	41                   	inc    %ecx
 237:	5f                   	pop    %edi
 238:	57                   	push   %edi
 239:	49                   	dec    %ecx
 23a:	44                   	inc    %esp
 23b:	54                   	push   %esp
 23c:	48                   	dec    %eax
 23d:	00 6c 6f 6e          	add    %ch,0x6e(%edi,%ebp,2)
 241:	67 20 6c 6f          	and    %ch,0x6f(%si)
 245:	6e                   	outsb  %ds:(%esi),(%dx)
 246:	67 20 75 6e          	and    %dh,0x6e(%di)
 24a:	73 69                	jae    2b5 <FLAGS+0x2b2>
 24c:	67 6e                	outsb  %ds:(%si),(%dx)
 24e:	65 64 20 69 6e       	gs and %ch,%fs:0x6e(%ecx)
 253:	74 00                	je     255 <FLAGS+0x252>
 255:	75 69                	jne    2c0 <FLAGS+0x2bd>
 257:	6e                   	outsb  %ds:(%esi),(%dx)
 258:	74 31                	je     28b <FLAGS+0x288>
 25a:	36 5f                	ss pop %edi
 25c:	74 00                	je     25e <FLAGS+0x25b>
 25e:	56                   	push   %esi
 25f:	47                   	inc    %edi
 260:	41                   	inc    %ecx
 261:	5f                   	pop    %edi
 262:	43                   	inc    %ebx
 263:	4f                   	dec    %edi
 264:	4c                   	dec    %esp
 265:	4f                   	dec    %edi
 266:	52                   	push   %edx
 267:	5f                   	pop    %edi
 268:	4c                   	dec    %esp
 269:	49                   	dec    %ecx
 26a:	47                   	inc    %edi
 26b:	48                   	dec    %eax
 26c:	54                   	push   %esp
 26d:	5f                   	pop    %edi
 26e:	42                   	inc    %edx
 26f:	4c                   	dec    %esp
 270:	55                   	push   %ebp
 271:	45                   	inc    %ebp
 272:	00 56 47             	add    %dl,0x47(%esi)
 275:	41                   	inc    %ecx
 276:	5f                   	pop    %edi
 277:	43                   	inc    %ebx
 278:	4f                   	dec    %edi
 279:	4c                   	dec    %esp
 27a:	4f                   	dec    %edi
 27b:	52                   	push   %edx
 27c:	5f                   	pop    %edi
 27d:	4c                   	dec    %esp
 27e:	49                   	dec    %ecx
 27f:	47                   	inc    %edi
 280:	48                   	dec    %eax
 281:	54                   	push   %esp
 282:	5f                   	pop    %edi
 283:	52                   	push   %edx
 284:	45                   	inc    %ebp
 285:	44                   	inc    %esp
 286:	00 73 68             	add    %dh,0x68(%ebx)
 289:	6f                   	outsl  %ds:(%esi),(%dx)
 28a:	72 74                	jb     300 <FLAGS+0x2fd>
 28c:	20 75 6e             	and    %dh,0x6e(%ebp)
 28f:	73 69                	jae    2fa <FLAGS+0x2f7>
 291:	67 6e                	outsb  %ds:(%si),(%dx)
 293:	65 64 20 69 6e       	gs and %ch,%fs:0x6e(%ecx)
 298:	74 00                	je     29a <FLAGS+0x297>
 29a:	73 74                	jae    310 <FLAGS+0x30d>
 29c:	72 6c                	jb     30a <FLAGS+0x307>
 29e:	65 6e                	outsb  %gs:(%esi),(%dx)
 2a0:	00 74 65 72          	add    %dh,0x72(%ebp,%eiz,2)
 2a4:	6d                   	insl   (%dx),%es:(%edi)
 2a5:	69 6e 61 6c 5f 72 6f 	imul   $0x6f725f6c,0x61(%esi),%ebp
 2ac:	77 00                	ja     2ae <FLAGS+0x2ab>
 2ae:	64 61                	fs popa
 2b0:	74 61                	je     313 <FLAGS+0x310>
 2b2:	00 56 47             	add    %dl,0x47(%esi)
 2b5:	41                   	inc    %ecx
 2b6:	5f                   	pop    %edi
 2b7:	43                   	inc    %ebx
 2b8:	4f                   	dec    %edi
 2b9:	4c                   	dec    %esp
 2ba:	4f                   	dec    %edi
 2bb:	52                   	push   %edx
 2bc:	5f                   	pop    %edi
 2bd:	52                   	push   %edx
 2be:	45                   	inc    %ebp
 2bf:	44                   	inc    %esp
 2c0:	00 63 68             	add    %ah,0x68(%ebx)
 2c3:	61                   	popa
 2c4:	72 61                	jb     327 <FLAGS+0x324>
 2c6:	63 74 65 72          	arpl   %si,0x72(%ebp,%eiz,2)
 2ca:	00 74 65 72          	add    %dh,0x72(%ebp,%eiz,2)
 2ce:	6d                   	insl   (%dx),%es:(%edi)
 2cf:	69 6e 61 6c 5f 64 65 	imul   $0x65645f6c,0x61(%esi),%ebp
 2d6:	6c                   	insb   (%dx),%es:(%edi)
 2d7:	65 74 65             	gs je  33f <FLAGS+0x33c>
 2da:	5f                   	pop    %edi
 2db:	6c                   	insb   (%dx),%es:(%edi)
 2dc:	61                   	popa
 2dd:	73 74                	jae    353 <FLAGS+0x350>
 2df:	5f                   	pop    %edi
 2e0:	6c                   	insb   (%dx),%es:(%edi)
 2e1:	69 6e 65 00 73 69 7a 	imul   $0x7a697300,0x65(%esi),%ebp
 2e8:	65 00 74 65 72       	add    %dh,%gs:0x72(%ebp,%eiz,2)
 2ed:	6d                   	insl   (%dx),%es:(%edi)
 2ee:	69 6e 61 6c 5f 69 6e 	imul   $0x6e695f6c,0x61(%esi),%ebp
 2f5:	69 74 69 61 6c 69 7a 	imul   $0x657a696c,0x61(%ecx,%ebp,2),%esi
 2fc:	65 
 2fd:	00 76 67             	add    %dh,0x67(%esi)
 300:	61                   	popa
 301:	5f                   	pop    %edi
 302:	63 6f 6c             	arpl   %bp,0x6c(%edi)
 305:	6f                   	outsl  %ds:(%esi),(%dx)
 306:	72 00                	jb     308 <FLAGS+0x305>
 308:	74 65                	je     36f <FLAGS+0x36c>
 30a:	72 6d                	jb     379 <FLAGS+0x376>
 30c:	69 6e 61 6c 5f 73 65 	imul   $0x65735f6c,0x61(%esi),%ebp
 313:	74 63                	je     378 <FLAGS+0x375>
 315:	6f                   	outsl  %ds:(%esi),(%dx)
 316:	6c                   	insb   (%dx),%es:(%edi)
 317:	6f                   	outsl  %ds:(%esi),(%dx)
 318:	72 00                	jb     31a <FLAGS+0x317>
 31a:	76 67                	jbe    383 <FLAGS+0x380>
 31c:	61                   	popa
 31d:	5f                   	pop    %edi
 31e:	65 6e                	outsb  %gs:(%esi),(%dx)
 320:	74 72                	je     394 <FLAGS+0x391>
 322:	79 5f                	jns    383 <FLAGS+0x380>
 324:	63 6f 6c             	arpl   %bp,0x6c(%edi)
 327:	6f                   	outsl  %ds:(%esi),(%dx)
 328:	72 00                	jb     32a <FLAGS+0x327>
 32a:	56                   	push   %esi
 32b:	47                   	inc    %edi
 32c:	41                   	inc    %ecx
 32d:	5f                   	pop    %edi
 32e:	43                   	inc    %ebx
 32f:	4f                   	dec    %edi
 330:	4c                   	dec    %esp
 331:	4f                   	dec    %edi
 332:	52                   	push   %edx
 333:	5f                   	pop    %edi
 334:	42                   	inc    %edx
 335:	4c                   	dec    %esp
 336:	55                   	push   %ebp
 337:	45                   	inc    %ebp
 338:	00 56 47             	add    %dl,0x47(%esi)
 33b:	41                   	inc    %ecx
 33c:	5f                   	pop    %edi
 33d:	43                   	inc    %ebx
 33e:	4f                   	dec    %edi
 33f:	4c                   	dec    %esp
 340:	4f                   	dec    %edi
 341:	52                   	push   %edx
 342:	5f                   	pop    %edi
 343:	57                   	push   %edi
 344:	48                   	dec    %eax
 345:	49                   	dec    %ecx
 346:	54                   	push   %esp
 347:	45                   	inc    %ebp
 348:	00 5f 46             	add    %bl,0x46(%edi)
 34b:	6c                   	insb   (%dx),%es:(%edi)
 34c:	6f                   	outsl  %ds:(%esi),(%dx)
 34d:	61                   	popa
 34e:	74 31                	je     381 <FLAGS+0x37e>
 350:	32 38                	xor    (%eax),%bh
 352:	00 56 47             	add    %dl,0x47(%esi)
 355:	41                   	inc    %ecx
 356:	5f                   	pop    %edi
 357:	43                   	inc    %ebx
 358:	4f                   	dec    %edi
 359:	4c                   	dec    %esp
 35a:	4f                   	dec    %edi
 35b:	52                   	push   %edx
 35c:	5f                   	pop    %edi
 35d:	4d                   	dec    %ebp
 35e:	41                   	inc    %ecx
 35f:	47                   	inc    %edi
 360:	45                   	inc    %ebp
 361:	4e                   	dec    %esi
 362:	54                   	push   %esp
 363:	41                   	inc    %ecx
 364:	00 56 47             	add    %dl,0x47(%esi)
 367:	41                   	inc    %ecx
 368:	5f                   	pop    %edi
 369:	43                   	inc    %ebx
 36a:	4f                   	dec    %edi
 36b:	4c                   	dec    %esp
 36c:	4f                   	dec    %edi
 36d:	52                   	push   %edx
 36e:	5f                   	pop    %edi
 36f:	4c                   	dec    %esp
 370:	49                   	dec    %ecx
 371:	47                   	inc    %edi
 372:	48                   	dec    %eax
 373:	54                   	push   %esp
 374:	5f                   	pop    %edi
 375:	42                   	inc    %edx
 376:	52                   	push   %edx
 377:	4f                   	dec    %edi
 378:	57                   	push   %edi
 379:	4e                   	dec    %esi
 37a:	00 62 61             	add    %ah,0x61(%edx)
 37d:	63 6b 67             	arpl   %bp,0x67(%ebx)
 380:	72 6f                	jb     3f1 <FLAGS+0x3ee>
 382:	75 6e                	jne    3f2 <FLAGS+0x3ef>
 384:	64 00 56 47          	add    %dl,%fs:0x47(%esi)
 388:	41                   	inc    %ecx
 389:	5f                   	pop    %edi
 38a:	4d                   	dec    %ebp
 38b:	45                   	inc    %ebp
 38c:	4d                   	dec    %ebp
 38d:	4f                   	dec    %edi
 38e:	52                   	push   %edx
 38f:	59                   	pop    %ecx
 390:	00 56 47             	add    %dl,0x47(%esi)
 393:	41                   	inc    %ecx
 394:	5f                   	pop    %edi
 395:	43                   	inc    %ebx
 396:	4f                   	dec    %edi
 397:	4c                   	dec    %esp
 398:	4f                   	dec    %edi
 399:	52                   	push   %edx
 39a:	5f                   	pop    %edi
 39b:	42                   	inc    %edx
 39c:	4c                   	dec    %esp
 39d:	41                   	inc    %ecx
 39e:	43                   	inc    %ebx
 39f:	4b                   	dec    %ebx
 3a0:	00 56 47             	add    %dl,0x47(%esi)
 3a3:	41                   	inc    %ecx
 3a4:	5f                   	pop    %edi
 3a5:	43                   	inc    %ebx
 3a6:	4f                   	dec    %edi
 3a7:	4c                   	dec    %esp
 3a8:	4f                   	dec    %edi
 3a9:	52                   	push   %edx
 3aa:	5f                   	pop    %edi
 3ab:	4c                   	dec    %esp
 3ac:	49                   	dec    %ecx
 3ad:	47                   	inc    %edi
 3ae:	48                   	dec    %eax
 3af:	54                   	push   %esp
 3b0:	5f                   	pop    %edi
 3b1:	47                   	inc    %edi
 3b2:	52                   	push   %edx
 3b3:	45                   	inc    %ebp
 3b4:	59                   	pop    %ecx
 3b5:	00 74 65 72          	add    %dh,0x72(%ebp,%eiz,2)
 3b9:	6d                   	insl   (%dx),%es:(%edi)
 3ba:	69 6e 61 6c 5f 63 6f 	imul   $0x6f635f6c,0x61(%esi),%ebp
 3c1:	6c                   	insb   (%dx),%es:(%edi)
 3c2:	6f                   	outsl  %ds:(%esi),(%dx)
 3c3:	72 00                	jb     3c5 <FLAGS+0x3c2>
 3c5:	6b 65 72 6e          	imul   $0x6e,0x72(%ebp),%esp
 3c9:	65 6c                	gs insb (%dx),%es:(%edi)
 3cb:	5f                   	pop    %edi
 3cc:	6d                   	insl   (%dx),%es:(%edi)
 3cd:	61                   	popa
 3ce:	69 6e 00 70 72 69 6e 	imul   $0x6e697270,0x0(%esi),%ebp
 3d5:	74 66                	je     43d <FLAGS+0x43a>
 3d7:	00 6d 61             	add    %ch,0x61(%ebp)
 3da:	78 72                	js     44e <FLAGS+0x44b>
 3dc:	65 6d                	gs insl (%dx),%es:(%edi)
 3de:	00 5f 5f             	add    %bl,0x5f(%edi)
 3e1:	62 75 69             	bound  %esi,0x69(%ebp)
 3e4:	6c                   	insb   (%dx),%es:(%edi)
 3e5:	74 69                	je     450 <FLAGS+0x44d>
 3e7:	6e                   	outsb  %ds:(%esi),(%dx)
 3e8:	5f                   	pop    %edi
 3e9:	76 61                	jbe    44c <FLAGS+0x449>
 3eb:	5f                   	pop    %edi
 3ec:	6c                   	insb   (%dx),%es:(%edi)
 3ed:	69 73 74 00 62 79 74 	imul   $0x74796200,0x74(%ebx),%esi
 3f4:	65 73 00             	gs jae 3f7 <FLAGS+0x3f4>
 3f7:	66 6f                	outsw  %ds:(%esi),(%dx)
 3f9:	72 6d                	jb     468 <FLAGS+0x465>
 3fb:	61                   	popa
 3fc:	74 00                	je     3fe <FLAGS+0x3fb>
 3fe:	6c                   	insb   (%dx),%es:(%edi)
 3ff:	65 6e                	outsb  %gs:(%esi),(%dx)
 401:	67 74 68             	addr16 je 46c <FLAGS+0x469>
 404:	00 70 72             	add    %dh,0x72(%eax)
 407:	69 6e 74 00 77 72 69 	imul   $0x69727700,0x74(%esi),%ebp
 40e:	74 74                	je     484 <FLAGS+0x481>
 410:	65 6e                	outsb  %gs:(%esi),(%dx)
 412:	00 66 6f             	add    %ah,0x6f(%esi)
 415:	72 6d                	jb     484 <FLAGS+0x481>
 417:	61                   	popa
 418:	74 5f                	je     479 <FLAGS+0x476>
 41a:	62 65 67             	bound  %esp,0x67(%ebp)
 41d:	75 6e                	jne    48d <FLAGS+0x48a>
 41f:	5f                   	pop    %edi
 420:	61                   	popa
 421:	74 00                	je     423 <FLAGS+0x420>
 423:	5f                   	pop    %edi
 424:	42                   	inc    %edx
 425:	6f                   	outsl  %ds:(%esi),(%dx)
 426:	6f                   	outsl  %ds:(%esi),(%dx)
 427:	6c                   	insb   (%dx),%es:(%edi)
 428:	00 70 61             	add    %dh,0x61(%eax)
 42b:	72 61                	jb     48e <FLAGS+0x48b>
 42d:	6d                   	insl   (%dx),%es:(%edi)
 42e:	65 74 65             	gs je  496 <FLAGS+0x493>
 431:	72 73                	jb     4a6 <FLAGS+0x4a3>
 433:	00 5f 5f             	add    %bl,0x5f(%edi)
 436:	67 6e                	outsb  %ds:(%si),(%dx)
 438:	75 63                	jne    49d <FLAGS+0x49a>
 43a:	5f                   	pop    %edi
 43b:	76 61                	jbe    49e <FLAGS+0x49b>
 43d:	5f                   	pop    %edi
 43e:	6c                   	insb   (%dx),%es:(%edi)
 43f:	69 73 74 00 61 6d 6f 	imul   $0x6f6d6100,0x74(%ebx),%esi
 446:	75 6e                	jne    4b6 <FLAGS+0x4b3>
 448:	74 00                	je     44a <FLAGS+0x447>
 44a:	61                   	popa
 44b:	72 63                	jb     4b0 <FLAGS+0x4ad>
 44d:	68 2f 69 33 38       	push   $0x3833692f
 452:	36 2f                	ss das
 454:	63 72 74             	arpl   %si,0x74(%edx)
 457:	6e                   	outsb  %ds:(%esi),(%dx)
 458:	2e 53                	cs push %ebx
	...

Disassembly of section .debug_rnglists:

00000000 <.debug_rnglists>:
   0:	15 00 00 00 05       	adc    $0x5000000,%eax
   5:	00 04 00             	add    %al,(%eax,%eax,1)
   8:	00 00                	add    %al,(%eax)
   a:	00 00                	add    %al,(%eax)
   c:	07                   	pop    %es
   d:	e1 06                	loope  15 <FLAGS+0x12>
   f:	10 00                	adc    %al,(%eax)
  11:	03 07                	add    (%edi),%eax
  13:	f0 06                	lock push %es
  15:	10 00                	adc    %al,(%eax)
  17:	03 00                	add    (%eax),%eax
  19:	62 00                	bound  %eax,(%eax)
  1b:	00 00                	add    %al,(%eax)
  1d:	05 00 04 00 00       	add    $0x400,%eax
  22:	00 00                	add    %al,(%eax)
  24:	00 04 40             	add    %al,(%eax,%eax,2)
  27:	45                   	inc    %ebp
  28:	04 48                	add    $0x48,%al
  2a:	4c                   	dec    %esp
  2b:	00 04 63             	add    %al,(%ebx,%eiz,2)
  2e:	6d                   	insl   (%dx),%es:(%edi)
  2f:	04 6e                	add    $0x6e,%al
  31:	73 00                	jae    33 <FLAGS+0x30>
  33:	04 8a                	add    $0x8a,%al
  35:	01 91 01 04 94 01    	add    %edx,0x1940401(%ecx)
  3b:	9c                   	pushf
  3c:	01 04 a2             	add    %eax,(%edx,%eiz,4)
  3f:	01 a6 01 00 04 b0    	add    %esp,-0x4ffbffff(%esi)
  45:	01 b0 01 04 b6 01    	add    %esi,0x1b60401(%eax)
  4b:	ff 01                	incl   (%ecx)
  4d:	00 04 97             	add    %al,(%edi,%edx,4)
  50:	02 b0 02 04 b0 02    	add    0x2b00402(%eax),%dh
  56:	b0 02                	mov    $0x2,%al
  58:	00 04 dc             	add    %al,(%esp,%ebx,8)
  5b:	02 e4                	add    %ah,%ah
  5d:	02 04 e7             	add    (%edi,%eiz,8),%al
  60:	02 ee                	add    %dh,%ch
  62:	02 04 f3             	add    (%ebx,%esi,8),%al
  65:	02 f9                	add    %cl,%bh
  67:	02 00                	add    (%eax),%al
  69:	04 c4                	add    $0xc4,%al
  6b:	03 d0                	add    %eax,%edx
  6d:	03 04 d0             	add    (%eax,%edx,8),%eax
  70:	03 d0                	add    %eax,%edx
  72:	03 00                	add    (%eax),%eax
  74:	04 f3                	add    $0xf3,%al
  76:	03 f3                	add    %ebx,%esi
  78:	03 04 f8             	add    (%eax,%edi,8),%eax
  7b:	03 a6 04 00 66 00    	add    0x660004(%esi),%esp
  81:	00 00                	add    %al,(%eax)
  83:	05 00 04 00 00       	add    $0x400,%eax
  88:	00 00                	add    %al,(%eax)
  8a:	00 04 24             	add    %al,(%esp)
  8d:	af                   	scas   %es:(%edi),%eax
  8e:	01 04 d0             	add    %eax,(%eax,%edx,8)
  91:	01 d0                	add    %edx,%eax
  93:	02 04 d6             	add    (%esi,%edx,8),%al
  96:	02 d9                	add    %cl,%bl
  98:	02 04 f0             	add    (%eax,%esi,8),%al
  9b:	02 f3                	add    %bl,%dh
  9d:	02 04 80             	add    (%eax,%eax,4),%al
  a0:	03 ab 03 04 af 03    	add    0x3af0403(%ebx),%ebp
  a6:	a9 04 04 ad 04       	test   $0x4ad0404,%eax
  ab:	e0 04                	loopne b1 <FLAGS+0xae>
  ad:	00 04 62             	add    %al,(%edx,%eiz,2)
  b0:	af                   	scas   %es:(%edi),%eax
  b1:	01 04 f0             	add    %eax,(%eax,%esi,8)
  b4:	02 f3                	add    %bl,%dh
  b6:	02 00                	add    (%eax),%al
  b8:	04 d0                	add    $0xd0,%al
  ba:	01 d0                	add    %edx,%eax
  bc:	02 04 d6             	add    (%esi,%edx,8),%al
  bf:	02 d9                	add    %cl,%bl
  c1:	02 04 c0             	add    (%eax,%eax,8),%al
  c4:	04 e0                	add    $0xe0,%al
  c6:	04 00                	add    $0x0,%al
  c8:	04 89                	add    $0x89,%al
  ca:	02 d0                	add    %al,%dl
  cc:	02 04 d8             	add    (%eax,%ebx,8),%al
  cf:	04 e0                	add    $0xe0,%al
  d1:	04 00                	add    $0x0,%al
  d3:	04 80                	add    $0x80,%al
  d5:	03 ab 03 04 af 03    	add    0x3af0403(%ebx),%ebp
  db:	b8 03 00 04 c0       	mov    $0xc0040003,%eax
  e0:	03 a9 04 04 ad 04    	add    0x4ad0404(%ecx),%ebp
  e6:	b3 04                	mov    $0x4,%bl
  e8:	00 15 00 00 00 05    	add    %dl,0x5000000
  ee:	00 04 00             	add    %al,(%eax,%eax,1)
  f1:	00 00                	add    %al,(%eax)
  f3:	00 00                	add    %al,(%eax)
  f5:	07                   	pop    %es
  f6:	ee                   	out    %al,(%dx)
  f7:	06                   	push   %es
  f8:	10 00                	adc    %al,(%eax)
  fa:	02 07                	add    (%edi),%al
  fc:	f8                   	clc
  fd:	06                   	push   %es
  fe:	10 00                	adc    %al,(%eax)
 100:	02 00                	add    (%eax),%al

Disassembly of section .comment:

00000000 <.comment>:
   0:	47                   	inc    %edi
   1:	43                   	inc    %ebx
   2:	43                   	inc    %ebx
   3:	3a 20                	cmp    (%eax),%ah
   5:	28 47 4e             	sub    %al,0x4e(%edi)
   8:	55                   	push   %ebp
   9:	29 20                	sub    %esp,(%eax)
   b:	31 31                	xor    %esi,(%ecx)
   d:	2e 32 2e             	xor    %cs:(%esi),%ch
  10:	30 00                	xor    %al,(%eax)

Disassembly of section .debug_loclists:

00000000 <.debug_loclists>:
   0:	a6                   	cmpsb  %es:(%edi),%ds:(%esi)
   1:	01 00                	add    %eax,(%eax)
   3:	00 05 00 04 00 00    	add    %al,0x400
   9:	00 00                	add    %al,(%eax)
   b:	00 00                	add    %al,(%eax)
   d:	00 04 c1             	add    %al,(%ecx,%eax,8)
  10:	04 cb                	add    $0xcb,%al
  12:	04 01                	add    $0x1,%al
  14:	50                   	push   %eax
  15:	00 00                	add    %al,(%eax)
  17:	00 04 c1             	add    %al,(%ecx,%eax,8)
  1a:	04 ed                	add    $0xed,%al
  1c:	04 02                	add    $0x2,%al
  1e:	91                   	xchg   %eax,%ecx
  1f:	00 00                	add    %al,(%eax)
  21:	01 00                	add    %eax,(%eax)
  23:	00 00                	add    %al,(%eax)
  25:	00 01                	add    %al,(%ecx)
  27:	04 c1                	add    $0xc1,%al
  29:	04 cb                	add    $0xcb,%al
  2b:	04 02                	add    $0x2,%al
  2d:	30 9f 04 cb 04 d9    	xor    %bl,-0x26fb34fc(%edi)
  33:	04 07                	add    $0x7,%al
  35:	73 00                	jae    37 <FLAGS+0x34>
  37:	91                   	xchg   %eax,%ecx
  38:	00 06                	add    %al,(%esi)
  3a:	1c 9f                	sbb    $0x9f,%al
  3c:	04 d9                	add    $0xd9,%al
  3e:	04 df                	add    $0xdf,%al
  40:	04 08                	add    $0x8,%al
  42:	91                   	xchg   %eax,%ecx
  43:	00 06                	add    %al,(%esi)
  45:	20 73 00             	and    %dh,0x0(%ebx)
  48:	22 9f 00 00 00 04    	and    0x4000000(%edi),%bl
  4e:	b6 01                	mov    $0x1,%dh
  50:	c8 01 02 91          	enter  $0x201,$0x91
  54:	00 00                	add    %al,(%eax)
  56:	00 00                	add    %al,(%eax)
  58:	04 c8                	add    $0xc8,%al
  5a:	01 d6                	add    %edx,%esi
  5c:	01 02                	add    %eax,(%edx)
  5e:	30 9f 00 00 02 04    	xor    %bl,0x4020000(%edi)
  64:	63 63 02             	arpl   %sp,0x2(%ebx)
  67:	91                   	xchg   %eax,%ecx
  68:	04 00                	add    $0x0,%al
  6a:	00 02                	add    %al,(%edx)
  6c:	04 63                	add    $0x63,%al
  6e:	63 02                	arpl   %ax,(%edx)
  70:	91                   	xchg   %eax,%ecx
  71:	00 00                	add    %al,(%eax)
  73:	02 00                	add    (%eax),%al
  75:	04 2a                	add    $0x2a,%al
  77:	2a 02                	sub    (%edx),%al
  79:	30 9f 00 00 00 04    	xor    %bl,0x4000000(%edi)
  7f:	2a 36                	sub    (%esi),%dh
  81:	02 30                	add    (%eax),%dh
  83:	9f                   	lahf
  84:	00 00                	add    %al,(%eax)
  86:	00 04 8a             	add    %al,(%edx,%ecx,4)
  89:	01 a8 01 0b 91 0c    	add    %ebp,0xc910b01(%eax)
  8f:	06                   	push   %es
  90:	08 50 1e             	or     %dl,0x1e(%eax)
  93:	91                   	xchg   %eax,%ecx
  94:	08 06                	or     %al,(%esi)
  96:	22 9f 00 01 03 04    	and    0x4030100(%edi),%bl
  9c:	8a 01                	mov    (%ecx),%al
  9e:	8a 01                	mov    (%ecx),%al
  a0:	02 91 04 00 01 03    	add    0x3010004(%ecx),%dl
  a6:	04 8a                	add    $0x8a,%al
  a8:	01 8a 01 02 91 00    	add    %ecx,0x910201(%edx)
  ae:	00 04 00             	add    %al,(%eax,%eax,1)
  b1:	04 90                	add    $0x90,%al
  b3:	02 a2 02 02 30 9f    	add    -0x60cffdfe(%edx),%ah
  b9:	00 02                	add    %al,(%edx)
  bb:	04 04                	add    $0x4,%al
  bd:	a2 02 a2 02 05       	mov    %al,0x502a202
  c2:	03 24 60             	add    (%eax,%eiz,2),%esp
  c5:	10 00                	adc    %al,(%eax)
  c7:	00 02                	add    %al,(%edx)
  c9:	04 04                	add    $0x4,%al
  cb:	a2 02 a2 02 03       	mov    %al,0x302a202
  d0:	08 20                	or     %ah,(%eax)
  d2:	9f                   	lahf
  d3:	00 00                	add    %al,(%eax)
  d5:	00 04 c3             	add    %al,(%ebx,%eax,8)
  d8:	02 ef                	add    %bh,%ch
  da:	03 02                	add    (%edx),%eax
  dc:	91                   	xchg   %eax,%ecx
  dd:	00 00                	add    %al,(%eax)
  df:	00 00                	add    %al,(%eax)
  e1:	04 dc                	add    $0xdc,%al
  e3:	02 f9                	add    %cl,%bh
  e5:	02 01                	add    (%ecx),%al
  e7:	51                   	push   %ecx
  e8:	00 00                	add    %al,(%eax)
  ea:	00 04 dc             	add    %al,(%esp,%ebx,8)
  ed:	02 f9                	add    %cl,%bh
  ef:	02 01                	add    (%ecx),%al
  f1:	56                   	push   %esi
  f2:	00 00                	add    %al,(%eax)
  f4:	00 04 dc             	add    %al,(%esp,%ebx,8)
  f7:	02 f9                	add    %cl,%bh
  f9:	02 05 03 24 60 10    	add    0x10602403,%al
  ff:	00 00                	add    %al,(%eax)
 101:	00 00                	add    %al,(%eax)
 103:	04 dc                	add    $0xdc,%al
 105:	02 f9                	add    %cl,%bh
 107:	02 02                	add    (%edx),%al
 109:	91                   	xchg   %eax,%ecx
 10a:	00 00                	add    %al,(%eax)
 10c:	02 00                	add    (%eax),%al
 10e:	04 dc                	add    $0xdc,%al
 110:	02 f9                	add    %cl,%bh
 112:	02 09                	add    (%ecx),%cl
 114:	71 00                	jno    116 <FLAGS+0x113>
 116:	08 50 1e             	or     %dl,0x1e(%eax)
 119:	76 00                	jbe    11b <FLAGS+0x118>
 11b:	22 9f 00 03 00 04    	and    0x4000300(%edi),%bl
 121:	dc 02                	faddl  (%edx)
 123:	ee                   	out    %al,(%dx)
 124:	02 05 03 24 60 10    	add    0x10602403,%al
 12a:	00 00                	add    %al,(%eax)
 12c:	03 00                	add    (%eax),%eax
 12e:	04 dc                	add    $0xdc,%al
 130:	02 ee                	add    %dh,%ch
 132:	02 02                	add    (%edx),%al
 134:	91                   	xchg   %eax,%ecx
 135:	00 00                	add    %al,(%eax)
 137:	00 00                	add    %al,(%eax)
 139:	00 00                	add    %al,(%eax)
 13b:	00 01                	add    %al,(%ecx)
 13d:	01 00                	add    %eax,(%eax)
 13f:	04 b0                	add    $0xb0,%al
 141:	03 b7 03 01 56 04    	add    0x4560103(%edi),%esi
 147:	b7 03                	mov    $0x3,%bh
 149:	bb 03 02 74 00       	mov    $0x740203,%ebx
 14e:	04 bb                	add    $0xbb,%al
 150:	03 bc 03 03 76 7f 9f 	add    -0x608089fd(%ebx,%eax,1),%edi
 157:	04 bc                	add    $0xbc,%al
 159:	03 e7                	add    %edi,%esp
 15b:	03 01                	add    (%ecx),%eax
 15d:	56                   	push   %esi
 15e:	00 01                	add    %al,(%ecx)
 160:	03 04 d0             	add    (%eax,%edx,8),%eax
 163:	03 d0                	add    %eax,%edx
 165:	03 03                	add    (%ebx),%eax
 167:	08 20                	or     %ah,(%eax)
 169:	9f                   	lahf
 16a:	00 00                	add    %al,(%eax)
 16c:	00 00                	add    %al,(%eax)
 16e:	00 04 f0             	add    %al,(%eax,%esi,8)
 171:	03 ac 04 02 91 04 04 	add    0x4049102(%esp,%eax,1),%ebp
 178:	ac                   	lods   %ds:(%esi),%al
 179:	04 ad                	add    $0xad,%al
 17b:	04 02                	add    $0x2,%al
 17d:	74 08                	je     187 <FLAGS+0x184>
 17f:	00 02                	add    %al,(%edx)
 181:	00 00                	add    %al,(%eax)
 183:	00 00                	add    %al,(%eax)
 185:	01 04 f3             	add    %eax,(%ebx,%esi,8)
 188:	03 81 04 02 30 9f    	add    -0x60cffdfc(%ecx),%eax
 18e:	04 81                	add    $0x81,%al
 190:	04 99                	add    $0x99,%al
 192:	04 07                	add    $0x7,%al
 194:	73 00                	jae    196 <FLAGS+0x193>
 196:	91                   	xchg   %eax,%ecx
 197:	00 06                	add    %al,(%esi)
 199:	1c 9f                	sbb    $0x9f,%al
 19b:	04 99                	add    $0x99,%al
 19d:	04 9f                	add    $0x9f,%al
 19f:	04 08                	add    $0x8,%al
 1a1:	91                   	xchg   %eax,%ecx
 1a2:	00 06                	add    %al,(%esi)
 1a4:	20 73 00             	and    %dh,0x0(%ebx)
 1a7:	22 9f 00 6d 02 00    	and    0x26d00(%edi),%bl
 1ad:	00 05 00 04 00 00    	add    %al,0x400
 1b3:	00 00                	add    %al,(%eax)
 1b5:	00 00                	add    %al,(%eax)
 1b7:	00 02                	add    %al,(%edx)
 1b9:	00 00                	add    %al,(%eax)
 1bb:	01 01                	add    %eax,(%ecx)
 1bd:	00 02                	add    %al,(%edx)
	...
 1c7:	00 04 00             	add    %al,(%eax,%eax,1)
 1ca:	26 02 91 00 04 c1 01 	add    %es:0x1c10400(%ecx),%dl
 1d1:	d3 01                	roll   %cl,(%ecx)
 1d3:	03 76 01             	add    0x1(%esi),%esi
 1d6:	9f                   	lahf
 1d7:	04 d6                	add    $0xd6,%al
 1d9:	02 d6                	add    %dh,%dl
 1db:	02 01                	add    (%ecx),%al
 1dd:	56                   	push   %esi
 1de:	04 d9                	add    $0xd9,%al
 1e0:	02 e9                	add    %cl,%ch
 1e2:	02 01                	add    (%ecx),%al
 1e4:	56                   	push   %esi
 1e5:	04 ec                	add    $0xec,%al
 1e7:	02 f8                	add    %al,%bh
 1e9:	02 01                	add    (%ecx),%al
 1eb:	56                   	push   %esi
 1ec:	04 86                	add    $0x86,%al
 1ee:	03 ba 03 01 57 04    	add    0x4570103(%edx),%edi
 1f4:	c9                   	leave
 1f5:	03 cc                	add    %esp,%ecx
 1f7:	03 01                	add    (%ecx),%eax
 1f9:	50                   	push   %eax
 1fa:	04 cc                	add    $0xcc,%al
 1fc:	03 b8 04 02 91 50    	add    0x50910204(%eax),%edi
 202:	04 d8                	add    $0xd8,%al
 204:	04 e0                	add    $0xe0,%al
 206:	04 02                	add    $0x2,%al
 208:	91                   	xchg   %eax,%ecx
 209:	58                   	pop    %eax
	...
 21e:	00 04 12             	add    %al,(%edx,%edx,1)
 221:	1c 01                	sbb    $0x1,%al
 223:	50                   	push   %eax
 224:	04 1c                	add    $0x1c,%al
 226:	af                   	scas   %es:(%edi),%eax
 227:	01 02                	add    %eax,(%edx)
 229:	91                   	xchg   %eax,%ecx
 22a:	54                   	push   %esp
 22b:	04 c1                	add    $0xc1,%al
 22d:	01 eb                	add    %ebp,%ebx
 22f:	02 02                	add    (%edx),%al
 231:	91                   	xchg   %eax,%ecx
 232:	54                   	push   %esp
 233:	04 eb                	add    $0xeb,%al
 235:	02 ec                	add    %ah,%ch
 237:	02 02                	add    (%edx),%al
 239:	74 58                	je     293 <FLAGS+0x290>
 23b:	04 ec                	add    $0xec,%al
 23d:	02 89 03 02 91 54    	add    0x54910203(%ecx),%cl
 243:	04 89                	add    $0x89,%al
 245:	03 ba 03 01 53 04    	add    0x4530103(%edx),%edi
 24b:	ba 03 d4 03 02       	mov    $0x203d403,%edx
 250:	91                   	xchg   %eax,%ecx
 251:	54                   	push   %esp
 252:	04 d4                	add    $0xd4,%al
 254:	03 d9                	add    %ecx,%ebx
 256:	03 01                	add    (%ecx),%eax
 258:	52                   	push   %edx
 259:	04 d9                	add    $0xd9,%al
 25b:	03 b8 04 02 91 4c    	add    0x4c910204(%eax),%edi
 261:	04 b8                	add    $0xb8,%al
 263:	04 e0                	add    $0xe0,%al
 265:	04 02                	add    $0x2,%al
 267:	91                   	xchg   %eax,%ecx
 268:	54                   	push   %esp
 269:	00 01                	add    %al,(%ecx)
	...
 273:	01 01                	add    %eax,(%ecx)
 275:	00 00                	add    %al,(%eax)
 277:	00 00                	add    %al,(%eax)
 279:	02 02                	add    (%edx),%al
 27b:	00 00                	add    %al,(%eax)
 27d:	00 04 12             	add    %al,(%edx,%edx,1)
 280:	26 02 30             	add    %es:(%eax),%dh
 283:	9f                   	lahf
 284:	04 26                	add    $0x26,%al
 286:	b6 01                	mov    $0x1,%dh
 288:	02 91 5c 04 c1 01    	add    0x1c1045c(%ecx),%dl
 28e:	eb 02                	jmp    292 <FLAGS+0x28f>
 290:	02 91 5c 04 eb 02    	add    0x2eb045c(%ecx),%dl
 296:	ec                   	in     (%dx),%al
 297:	02 01                	add    (%ecx),%al
 299:	50                   	push   %eax
 29a:	04 ec                	add    $0xec,%al
 29c:	02 ec                	add    %ah,%ch
 29e:	02 02                	add    (%edx),%al
 2a0:	91                   	xchg   %eax,%ecx
 2a1:	5c                   	pop    %esp
 2a2:	04 ec                	add    $0xec,%al
 2a4:	02 f3                	add    %bl,%dh
 2a6:	02 07                	add    (%edi),%al
 2a8:	91                   	xchg   %eax,%ecx
 2a9:	5c                   	pop    %esp
 2aa:	06                   	push   %es
 2ab:	73 00                	jae    2ad <FLAGS+0x2aa>
 2ad:	22 9f 04 f3 02 b3    	and    -0x4cfd0cfc(%edi),%bl
 2b3:	03 02                	add    (%edx),%eax
 2b5:	91                   	xchg   %eax,%ecx
 2b6:	5c                   	pop    %esp
 2b7:	04 ba                	add    $0xba,%al
 2b9:	03 a0 04 02 91 5c    	add    0x5c910204(%eax),%esp
 2bf:	04 a0                	add    $0xa0,%al
 2c1:	04 a6                	add    $0xa6,%al
 2c3:	04 08                	add    $0x8,%al
 2c5:	91                   	xchg   %eax,%ecx
 2c6:	5c                   	pop    %esp
 2c7:	06                   	push   %es
 2c8:	91                   	xchg   %eax,%ecx
 2c9:	54                   	push   %esp
 2ca:	06                   	push   %es
 2cb:	22 9f 04 a6 04 e0    	and    -0x1ffb59fc(%edi),%bl
 2d1:	04 02                	add    $0x2,%al
 2d3:	91                   	xchg   %eax,%ecx
 2d4:	5c                   	pop    %esp
	...
 2e9:	00 00                	add    %al,(%eax)
 2eb:	00 04 3c             	add    %al,(%esp,%edi,1)
 2ee:	6a 01                	push   $0x1
 2f0:	51                   	push   %ecx
 2f1:	04 6a                	add    $0x6a,%al
 2f3:	af                   	scas   %es:(%edi),%eax
 2f4:	01 02                	add    %eax,(%edx)
 2f6:	91                   	xchg   %eax,%ecx
 2f7:	58                   	pop    %eax
 2f8:	04 af                	add    $0xaf,%al
 2fa:	01 b6 01 0a 0c ff    	add    %esi,-0xf3f5ff(%esi)
 300:	ff                   	(bad)
 301:	ff                   	(bad)
 302:	7f 91                	jg     295 <FLAGS+0x292>
 304:	5c                   	pop    %esp
 305:	06                   	push   %es
 306:	1c 9f                	sbb    $0x9f,%al
 308:	04 c1                	add    $0xc1,%al
 30a:	01 95 02 01 51 04    	add    %edx,0x4510102(%ebp)
 310:	95                   	xchg   %eax,%ebp
 311:	02 d9                	add    %cl,%bl
 313:	02 0a                	add    (%edx),%cl
 315:	0c ff                	or     $0xff,%al
 317:	ff                   	(bad)
 318:	ff                   	(bad)
 319:	7f 91                	jg     2ac <FLAGS+0x2a9>
 31b:	5c                   	pop    %esp
 31c:	06                   	push   %es
 31d:	1c 9f                	sbb    $0x9f,%al
 31f:	04 ec                	add    $0xec,%al
 321:	02 f8                	add    %al,%bh
 323:	02 02                	add    (%edx),%al
 325:	91                   	xchg   %eax,%ecx
 326:	58                   	pop    %eax
 327:	04 f8                	add    $0xf8,%al
 329:	02 9e 03 01 51 04    	add    0x4510103(%esi),%bl
 32f:	9e                   	sahf
 330:	03 b3 03 0a 0c ff    	add    -0xf3f5fd(%ebx),%esi
 336:	ff                   	(bad)
 337:	ff                   	(bad)
 338:	7f 91                	jg     2cb <FLAGS+0x2c8>
 33a:	5c                   	pop    %esp
 33b:	06                   	push   %es
 33c:	1c 9f                	sbb    $0x9f,%al
 33e:	04 ba                	add    $0xba,%al
 340:	03 d9                	add    %ecx,%ebx
 342:	03 01                	add    (%ecx),%eax
 344:	51                   	push   %ecx
 345:	04 d9                	add    $0xd9,%al
 347:	03 b8 04 02 91 58    	add    0x58910204(%eax),%edi
 34d:	04 b8                	add    $0xb8,%al
 34f:	04 e0                	add    $0xe0,%al
 351:	04 01                	add    $0x1,%al
 353:	51                   	push   %ecx
 354:	00 02                	add    %al,(%edx)
 356:	00 00                	add    %al,(%eax)
 358:	00 00                	add    %al,(%eax)
 35a:	00 04 ec             	add    %al,(%esp,%ebp,8)
 35d:	02 f8                	add    %al,%bh
 35f:	02 01                	add    (%ecx),%al
 361:	56                   	push   %esi
 362:	04 b8                	add    $0xb8,%al
 364:	03 ba 03 01 57 04    	add    0x4570103(%edx),%edi
 36a:	b3 04                	mov    $0x4,%bl
 36c:	b8 04 01 56 00       	mov    $0x560104,%eax
 371:	01 00                	add    %eax,(%eax)
 373:	00 00                	add    %al,(%eax)
 375:	00 00                	add    %al,(%eax)
 377:	00 00                	add    %al,(%eax)
 379:	04 d3                	add    $0xd3,%al
 37b:	01 ec                	add    %ebp,%esp
 37d:	01 02                	add    %eax,(%edx)
 37f:	31 9f 04 ec 01 91    	xor    %ebx,-0x6efe13fc(%edi)
 385:	02 01                	add    (%ecx),%al
 387:	57                   	push   %edi
 388:	04 b8                	add    $0xb8,%al
 38a:	04 d8                	add    $0xd8,%al
 38c:	04 02                	add    $0x2,%al
 38e:	31 9f 04 d8 04 e0    	xor    %ebx,-0x1ffb27fc(%edi)
 394:	04 01                	add    $0x1,%al
 396:	57                   	push   %edi
 397:	00 00                	add    %al,(%eax)
 399:	00 00                	add    %al,(%eax)
 39b:	00 00                	add    %al,(%eax)
 39d:	00 04 89             	add    %al,(%ecx,%ecx,4)
 3a0:	02 91 02 02 30 9f    	add    -0x60cffdfe(%ecx),%dl
 3a6:	04 95                	add    $0x95,%al
 3a8:	02 d6                	add    %dh,%dl
 3aa:	02 01                	add    (%ecx),%al
 3ac:	53                   	push   %ebx
 3ad:	04 d8                	add    $0xd8,%al
 3af:	04 e0                	add    $0xe0,%al
 3b1:	04 02                	add    $0x2,%al
 3b3:	30 9f 00 00 00 04    	xor    %bl,0x4000000(%edi)
 3b9:	8b 03                	mov    (%ebx),%eax
 3bb:	9a 03 03 91 54 06 00 	lcall  $0x6,$0x54910303
 3c2:	00 01                	add    %al,(%ecx)
 3c4:	01 02                	add    %eax,(%edx)
 3c6:	04 93                	add    $0x93,%al
 3c8:	03 ab 03 02 30 9f    	add    -0x60cffdfd(%ebx),%ebp
 3ce:	04 ab                	add    $0xab,%al
 3d0:	03 ab 03 02 31 9f    	add    -0x60cefdfd(%ebx),%ebp
 3d6:	00 00                	add    %al,(%eax)
 3d8:	00 00                	add    %al,(%eax)
 3da:	00 04 e3             	add    %al,(%ebx,%eiz,8)
 3dd:	03 f4                	add    %esp,%esi
 3df:	03 01                	add    (%ecx),%eax
 3e1:	50                   	push   %eax
 3e2:	04 f4                	add    $0xf4,%al
 3e4:	03 b3 04 02 91 54    	add    0x54910204(%ebx),%esi
 3ea:	00 00                	add    %al,(%eax)
 3ec:	00 04 eb             	add    %al,(%ebx,%ebp,8)
 3ef:	03 f4                	add    %esp,%esi
 3f1:	03 02                	add    (%edx),%eax
 3f3:	30 9f 00 00 00 00    	xor    %bl,0x0(%edi)
 3f9:	00 00                	add    %al,(%eax)
 3fb:	00 04 73             	add    %al,(%ebx,%esi,2)
 3fe:	86 01                	xchg   %al,(%ecx)
 400:	01 50 04             	add    %edx,0x4(%eax)
 403:	86 01                	xchg   %al,(%ecx)
 405:	af                   	scas   %es:(%edi),%eax
 406:	01 01                	add    %eax,(%ecx)
 408:	53                   	push   %ebx
 409:	04 ec                	add    $0xec,%al
 40b:	02 f8                	add    %al,%bh
 40d:	02 01                	add    (%ecx),%al
 40f:	53                   	push   %ebx
 410:	00 00                	add    %al,(%eax)
 412:	00 04 77             	add    %al,(%edi,%esi,2)
 415:	86 01                	xchg   %al,(%ecx)
 417:	02 30                	add    (%eax),%dh
 419:	9f                   	lahf
 41a:	00 28                	add    %ch,(%eax)
 41c:	00 00                	add    %al,(%eax)
 41e:	00 05 00 04 00 00    	add    %al,0x400
 424:	00 00                	add    %al,(%eax)
 426:	00 00                	add    %al,(%eax)
 428:	00 00                	add    %al,(%eax)
 42a:	00 04 00             	add    %al,(%eax,%eax,1)
 42d:	19 02                	sbb    %eax,(%edx)
 42f:	91                   	xchg   %eax,%ecx
 430:	00 04 19             	add    %al,(%ecx,%ebx,1)
 433:	1b 01                	sbb    (%ecx),%eax
 435:	52                   	push   %edx
 436:	00 02                	add    %al,(%edx)
 438:	00 00                	add    %al,(%eax)
 43a:	00 04 00             	add    %al,(%eax,%eax,1)
 43d:	0d 02 30 9f 04       	or     $0x49f3002,%eax
 442:	0d 19 01 50 00       	or     $0x500119,%eax

Disassembly of section .debug_frame:

00000000 <.debug_frame>:
   0:	10 00                	adc    %al,(%eax)
   2:	00 00                	add    %al,(%eax)
   4:	ff                   	(bad)
   5:	ff                   	(bad)
   6:	ff                   	(bad)
   7:	ff 01                	incl   (%ecx)
   9:	00 01                	add    %al,(%ecx)
   b:	7c 08                	jl     15 <FLAGS+0x12>
   d:	0c 04                	or     $0x4,%al
   f:	04 88                	add    $0x88,%al
  11:	01 00                	add    %eax,(%eax)
  13:	00 0c 00             	add    %cl,(%eax,%eax,1)
  16:	00 00                	add    %al,(%eax)
  18:	00 00                	add    %al,(%eax)
  1a:	00 00                	add    %al,(%eax)
  1c:	70 01                	jo     1f <FLAGS+0x1c>
  1e:	10 00                	adc    %al,(%eax)
  20:	5b                   	pop    %ebx
  21:	00 00                	add    %al,(%eax)
  23:	00 1c 00             	add    %bl,(%eax,%eax,1)
  26:	00 00                	add    %al,(%eax)
  28:	00 00                	add    %al,(%eax)
  2a:	00 00                	add    %al,(%eax)
  2c:	d0 01                	rolb   (%ecx)
  2e:	10 00                	adc    %al,(%eax)
  30:	14 00                	adc    $0x0,%al
  32:	00 00                	add    %al,(%eax)
  34:	41                   	inc    %ecx
  35:	0e                   	push   %cs
  36:	08 85 02 42 0d 05    	or     %al,0x50d4202(%ebp)
  3c:	4b                   	dec    %ebx
  3d:	c5 0c 04             	lds    (%esp,%eax,1),%ecx
  40:	04 00                	add    $0x0,%al
  42:	00 00                	add    %al,(%eax)
  44:	1c 00                	sbb    $0x0,%al
  46:	00 00                	add    %al,(%eax)
  48:	00 00                	add    %al,(%eax)
  4a:	00 00                	add    %al,(%eax)
  4c:	f0 01 10             	lock add %edx,(%eax)
  4f:	00 28                	add    %ch,(%eax)
  51:	00 00                	add    %al,(%eax)
  53:	00 41 0e             	add    %al,0xe(%ecx)
  56:	08 85 02 42 0d 05    	or     %al,0x50d4202(%ebp)
  5c:	64 c5 0c 04          	lds    %fs:(%esp,%eax,1),%ecx
  60:	04 00                	add    $0x0,%al
  62:	00 00                	add    %al,(%eax)
  64:	1c 00                	sbb    $0x0,%al
  66:	00 00                	add    %al,(%eax)
  68:	00 00                	add    %al,(%eax)
  6a:	00 00                	add    %al,(%eax)
  6c:	20 02                	and    %al,(%edx)
  6e:	10 00                	adc    %al,(%eax)
  70:	51                   	push   %ecx
  71:	00 00                	add    %al,(%eax)
  73:	00 41 0e             	add    %al,0xe(%ecx)
  76:	08 85 02 42 0d 05    	or     %al,0x50d4202(%ebp)
  7c:	02 4d c5             	add    -0x3b(%ebp),%cl
  7f:	0c 04                	or     $0x4,%al
  81:	04 00                	add    $0x0,%al
  83:	00 0c 00             	add    %cl,(%eax,%eax,1)
  86:	00 00                	add    %al,(%eax)
  88:	00 00                	add    %al,(%eax)
  8a:	00 00                	add    %al,(%eax)
  8c:	80 02 10             	addb   $0x10,(%edx)
  8f:	00 2e                	add    %ch,(%esi)
  91:	00 00                	add    %al,(%eax)
  93:	00 38                	add    %bh,(%eax)
  95:	00 00                	add    %al,(%eax)
  97:	00 00                	add    %al,(%eax)
  99:	00 00                	add    %al,(%eax)
  9b:	00 b0 02 10 00 af    	add    %dh,-0x50ffeffe(%eax)
  a1:	00 00                	add    %al,(%eax)
  a3:	00 41 0e             	add    %al,0xe(%ecx)
  a6:	08 85 02 42 0d 05    	or     %al,0x50d4202(%ebp)
  ac:	46                   	inc    %esi
  ad:	87 03                	xchg   %eax,(%ebx)
  af:	86 04 83             	xchg   %al,(%ebx,%eax,4)
  b2:	05 02 41 0a c3       	add    $0xc30a4102,%eax
  b7:	41                   	inc    %ecx
  b8:	c6 41 c7 41          	movb   $0x41,-0x39(%ecx)
  bc:	c5 0c 04             	lds    (%esp,%eax,1),%ecx
  bf:	04 43                	add    $0x43,%al
  c1:	0b 02                	or     (%edx),%eax
  c3:	5b                   	pop    %ebx
  c4:	c3                   	ret
  c5:	41                   	inc    %ecx
  c6:	c6 41 c7 41          	movb   $0x41,-0x39(%ecx)
  ca:	c5 0c 04             	lds    (%esp,%eax,1),%ecx
  cd:	04 00                	add    $0x0,%al
  cf:	00 24 00             	add    %ah,(%eax,%eax,1)
  d2:	00 00                	add    %al,(%eax)
  d4:	00 00                	add    %al,(%eax)
  d6:	00 00                	add    %al,(%eax)
  d8:	60                   	pusha
  d9:	03 10                	add    (%eax),%edx
  db:	00 3d 00 00 00 41    	add    %bh,0x41000000
  e1:	0e                   	push   %cs
  e2:	08 85 02 42 0d 05    	or     %al,0x50d4202(%ebp)
  e8:	41                   	inc    %ecx
  e9:	86 03                	xchg   %al,(%ebx)
  eb:	44                   	inc    %esp
  ec:	83 04 72 c3          	addl   $0xffffffc3,(%edx,%esi,2)
  f0:	41                   	inc    %ecx
  f1:	c6 41 c5 0c          	movb   $0xc,-0x3b(%ecx)
  f5:	04 04                	add    $0x4,%al
  f7:	00 24 00             	add    %ah,(%eax,%eax,1)
  fa:	00 00                	add    %al,(%eax)
  fc:	00 00                	add    %al,(%eax)
  fe:	00 00                	add    %al,(%eax)
 100:	a0 03 10 00 3d       	mov    0x3d001003,%al
 105:	00 00                	add    %al,(%eax)
 107:	00 41 0e             	add    %al,0xe(%ecx)
 10a:	08 85 02 42 0d 05    	or     %al,0x50d4202(%ebp)
 110:	42                   	inc    %edx
 111:	86 03                	xchg   %al,(%ebx)
 113:	83 04 75 c3 41 c6 41 	addl   $0xffffffc5,0x41c641c3(,%esi,2)
 11a:	c5 
 11b:	0c 04                	or     $0x4,%al
 11d:	04 00                	add    $0x0,%al
 11f:	00 10                	add    %dl,(%eax)
 121:	00 00                	add    %al,(%eax)
 123:	00 ff                	add    %bh,%bh
 125:	ff                   	(bad)
 126:	ff                   	(bad)
 127:	ff 01                	incl   (%ecx)
 129:	00 01                	add    %al,(%ecx)
 12b:	7c 08                	jl     135 <FLAGS+0x132>
 12d:	0c 04                	or     $0x4,%al
 12f:	04 88                	add    $0x88,%al
 131:	01 00                	add    %eax,(%eax)
 133:	00 1c 00             	add    %bl,(%eax,%eax,1)
 136:	00 00                	add    %al,(%eax)
 138:	20 01                	and    %al,(%ecx)
 13a:	00 00                	add    %al,(%eax)
 13c:	e0 03                	loopne 141 <FLAGS+0x13e>
 13e:	10 00                	adc    %al,(%eax)
 140:	1d 00 00 00 41       	sbb    $0x41000000,%eax
 145:	0e                   	push   %cs
 146:	08 85 02 42 0d 05    	or     %al,0x50d4202(%ebp)
 14c:	59                   	pop    %ecx
 14d:	c5 0c 04             	lds    (%esp,%eax,1),%ecx
 150:	04 00                	add    $0x0,%al
 152:	00 00                	add    %al,(%eax)
 154:	10 00                	adc    %al,(%eax)
 156:	00 00                	add    %al,(%eax)
 158:	ff                   	(bad)
 159:	ff                   	(bad)
 15a:	ff                   	(bad)
 15b:	ff 01                	incl   (%ecx)
 15d:	00 01                	add    %al,(%ecx)
 15f:	7c 08                	jl     169 <FLAGS+0x166>
 161:	0c 04                	or     $0x4,%al
 163:	04 88                	add    $0x88,%al
 165:	01 00                	add    %eax,(%eax)
 167:	00 3c 00             	add    %bh,(%eax,%eax,1)
 16a:	00 00                	add    %al,(%eax)
 16c:	54                   	push   %esp
 16d:	01 00                	add    %eax,(%eax)
 16f:	00 00                	add    %al,(%eax)
 171:	04 10                	add    $0x10,%al
 173:	00 60 02             	add    %ah,0x2(%eax)
 176:	00 00                	add    %al,(%eax)
 178:	41                   	inc    %ecx
 179:	0e                   	push   %cs
 17a:	08 85 02 42 0d 05    	or     %al,0x50d4202(%ebp)
 180:	49                   	dec    %ecx
 181:	87 03                	xchg   %eax,(%ebx)
 183:	86 04 83             	xchg   %al,(%ebx,%eax,4)
 186:	05 02 b1 0a c3       	add    $0xc30ab102,%eax
 18b:	41                   	inc    %ecx
 18c:	c6 41 c7 41          	movb   $0x41,-0x39(%ecx)
 190:	c5 0c 04             	lds    (%esp,%eax,1),%ecx
 193:	04 50                	add    $0x50,%al
 195:	0b 02                	or     (%edx),%eax
 197:	98                   	cwtl
 198:	0a c3                	or     %bl,%al
 19a:	41                   	inc    %ecx
 19b:	c6 41 c7 41          	movb   $0x41,-0x39(%ecx)
 19f:	c5 0c 04             	lds    (%esp,%eax,1),%ecx
 1a2:	04 45                	add    $0x45,%al
 1a4:	0b 00                	or     (%eax),%eax
 1a6:	00 00                	add    %al,(%eax)
 1a8:	10 00                	adc    %al,(%eax)
 1aa:	00 00                	add    %al,(%eax)
 1ac:	ff                   	(bad)
 1ad:	ff                   	(bad)
 1ae:	ff                   	(bad)
 1af:	ff 01                	incl   (%ecx)
 1b1:	00 01                	add    %al,(%ecx)
 1b3:	7c 08                	jl     1bd <FLAGS+0x1ba>
 1b5:	0c 04                	or     $0x4,%al
 1b7:	04 88                	add    $0x88,%al
 1b9:	01 00                	add    %eax,(%eax)
 1bb:	00 20                	add    %ah,(%eax)
 1bd:	00 00                	add    %al,(%eax)
 1bf:	00 a8 01 00 00 60    	add    %ch,0x60000001(%eax)
 1c5:	06                   	push   %es
 1c6:	10 00                	adc    %al,(%eax)
 1c8:	1f                   	pop    %ds
 1c9:	00 00                	add    %al,(%eax)
 1cb:	00 41 0e             	add    %al,0xe(%ecx)
 1ce:	08 85 02 42 0d 05    	or     %al,0x50d4202(%ebp)
 1d4:	47                   	inc    %edi
 1d5:	83 03 54             	addl   $0x54,(%ebx)
 1d8:	c5 c3 0c             	(bad)
 1db:	04 04                	add    $0x4,%al
 1dd:	00 00                	add    %al,(%eax)
 1df:	00 10                	add    %dl,(%eax)
 1e1:	00 00                	add    %al,(%eax)
 1e3:	00 ff                	add    %bh,%bh
 1e5:	ff                   	(bad)
 1e6:	ff                   	(bad)
 1e7:	ff 01                	incl   (%ecx)
 1e9:	00 01                	add    %al,(%ecx)
 1eb:	7c 08                	jl     1f5 <FLAGS+0x1f2>
 1ed:	0c 04                	or     $0x4,%al
 1ef:	04 88                	add    $0x88,%al
 1f1:	01 00                	add    %eax,(%eax)
 1f3:	00 1c 00             	add    %bl,(%eax,%eax,1)
 1f6:	00 00                	add    %al,(%eax)
 1f8:	e0 01                	loopne 1fb <FLAGS+0x1f8>
 1fa:	00 00                	add    %al,(%eax)
 1fc:	80 06 10             	addb   $0x10,(%esi)
 1ff:	00 1b                	add    %bl,(%ebx)
 201:	00 00                	add    %al,(%eax)
 203:	00 41 0e             	add    %al,0xe(%ecx)
 206:	08 85 02 44 0d 05    	or     %al,0x50d4402(%ebp)
 20c:	55                   	push   %ebp
 20d:	c5 0c 04             	lds    (%esp,%eax,1),%ecx
 210:	04 00                	add    $0x0,%al
	...
